Archive member included to satisfy reference by file (symbol)

d:/simplicitystudio-5/developer/toolchains/gnu_arm/12.2.rel1_2023.7/bin/../lib/gcc/arm-none-eabi/12.2.1/thumb/v7e-m+fp/softfp\libgcc.a(_arm_muldf3.o)
                              ./app.o (__aeabi_dmul)
d:/simplicitystudio-5/developer/toolchains/gnu_arm/12.2.rel1_2023.7/bin/../lib/gcc/arm-none-eabi/12.2.1/thumb/v7e-m+fp/softfp\libgcc.a(_arm_addsubdf3.o)
                              ./app.o (__aeabi_f2d)
d:/simplicitystudio-5/developer/toolchains/gnu_arm/12.2.rel1_2023.7/bin/../lib/gcc/arm-none-eabi/12.2.1/thumb/v7e-m+fp/softfp\libgcc.a(_arm_truncdfsf2.o)
                              ./app.o (__aeabi_d2f)
d:/simplicitystudio-5/developer/toolchains/gnu_arm/12.2.rel1_2023.7/bin/../lib/gcc/arm-none-eabi/12.2.1/thumb/v7e-m+fp/softfp\libgcc.a(_aeabi_ldivmod.o)
                              ./gecko_sdk_4.4.6/platform/emlib/src/em_usart.o (__aeabi_ldivmod)
d:/simplicitystudio-5/developer/toolchains/gnu_arm/12.2.rel1_2023.7/bin/../lib/gcc/arm-none-eabi/12.2.1/thumb/v7e-m+fp/softfp\libgcc.a(_aeabi_uldivmod.o)
                              ./gecko_sdk_4.4.6/platform/emlib/src/em_usart.o (__aeabi_uldivmod)
d:/simplicitystudio-5/developer/toolchains/gnu_arm/12.2.rel1_2023.7/bin/../lib/gcc/arm-none-eabi/12.2.1/thumb/v7e-m+fp/softfp\libgcc.a(_udivmoddi4.o)
                              d:/simplicitystudio-5/developer/toolchains/gnu_arm/12.2.rel1_2023.7/bin/../lib/gcc/arm-none-eabi/12.2.1/thumb/v7e-m+fp/softfp\libgcc.a(_aeabi_ldivmod.o) (__udivmoddi4)
d:/simplicitystudio-5/developer/toolchains/gnu_arm/12.2.rel1_2023.7/bin/../lib/gcc/arm-none-eabi/12.2.1/thumb/v7e-m+fp/softfp\libgcc.a(emutls.o)
                              ./app.o (__emutls_get_address)
d:/simplicitystudio-5/developer/toolchains/gnu_arm/12.2.rel1_2023.7/bin/../lib/gcc/arm-none-eabi/12.2.1/thumb/v7e-m+fp/softfp\libgcc.a(_dvmd_tls.o)
                              d:/simplicitystudio-5/developer/toolchains/gnu_arm/12.2.rel1_2023.7/bin/../lib/gcc/arm-none-eabi/12.2.1/thumb/v7e-m+fp/softfp\libgcc.a(_aeabi_ldivmod.o) (__aeabi_ldiv0)
d:/simplicitystudio-5/developer/toolchains/gnu_arm/12.2.rel1_2023.7/bin/../lib/gcc/arm-none-eabi/12.2.1/thumb/v7e-m+fp/softfp\libc_nano.a(libc_a-abs.o)
                              ./app.o (abs)
d:/simplicitystudio-5/developer/toolchains/gnu_arm/12.2.rel1_2023.7/bin/../lib/gcc/arm-none-eabi/12.2.1/thumb/v7e-m+fp/softfp\libc_nano.a(libc_a-assert.o)
                              ./app.o (__assert_func)
d:/simplicitystudio-5/developer/toolchains/gnu_arm/12.2.rel1_2023.7/bin/../lib/gcc/arm-none-eabi/12.2.1/thumb/v7e-m+fp/softfp\libc_nano.a(libc_a-exit.o)
                              d:/simplicitystudio-5/developer/toolchains/gnu_arm/12.2.rel1_2023.7/bin/../lib/gcc/arm-none-eabi/12.2.1/thumb/v7e-m+fp/softfp/crt0.o (exit)
d:/simplicitystudio-5/developer/toolchains/gnu_arm/12.2.rel1_2023.7/bin/../lib/gcc/arm-none-eabi/12.2.1/thumb/v7e-m+fp/softfp\libc_nano.a(libc_a-malloc.o)
                              ./app.o (malloc)
d:/simplicitystudio-5/developer/toolchains/gnu_arm/12.2.rel1_2023.7/bin/../lib/gcc/arm-none-eabi/12.2.1/thumb/v7e-m+fp/softfp\libc_nano.a(libc_a-mallocr.o)
                              d:/simplicitystudio-5/developer/toolchains/gnu_arm/12.2.rel1_2023.7/bin/../lib/gcc/arm-none-eabi/12.2.1/thumb/v7e-m+fp/softfp\libc_nano.a(libc_a-malloc.o) (_malloc_r)
d:/simplicitystudio-5/developer/toolchains/gnu_arm/12.2.rel1_2023.7/bin/../lib/gcc/arm-none-eabi/12.2.1/thumb/v7e-m+fp/softfp\libc_nano.a(libc_a-mlock.o)
                              d:/simplicitystudio-5/developer/toolchains/gnu_arm/12.2.rel1_2023.7/bin/../lib/gcc/arm-none-eabi/12.2.1/thumb/v7e-m+fp/softfp\libc_nano.a(libc_a-mallocr.o) (__malloc_lock)
d:/simplicitystudio-5/developer/toolchains/gnu_arm/12.2.rel1_2023.7/bin/../lib/gcc/arm-none-eabi/12.2.1/thumb/v7e-m+fp/softfp\libc_nano.a(libc_a-realloc.o)
                              ./app.o (realloc)
d:/simplicitystudio-5/developer/toolchains/gnu_arm/12.2.rel1_2023.7/bin/../lib/gcc/arm-none-eabi/12.2.1/thumb/v7e-m+fp/softfp\libc_nano.a(libc_a-reallocr.o)
                              d:/simplicitystudio-5/developer/toolchains/gnu_arm/12.2.rel1_2023.7/bin/../lib/gcc/arm-none-eabi/12.2.1/thumb/v7e-m+fp/softfp\libc_nano.a(libc_a-realloc.o) (_realloc_r)
d:/simplicitystudio-5/developer/toolchains/gnu_arm/12.2.rel1_2023.7/bin/../lib/gcc/arm-none-eabi/12.2.1/thumb/v7e-m+fp/softfp\libc_nano.a(libc_a-strtol.o)
                              ./app.o (strtol)
d:/simplicitystudio-5/developer/toolchains/gnu_arm/12.2.rel1_2023.7/bin/../lib/gcc/arm-none-eabi/12.2.1/thumb/v7e-m+fp/softfp\libc_nano.a(libc_a-ctype_.o)
                              d:/simplicitystudio-5/developer/toolchains/gnu_arm/12.2.rel1_2023.7/bin/../lib/gcc/arm-none-eabi/12.2.1/thumb/v7e-m+fp/softfp\libc_nano.a(libc_a-strtol.o) (_ctype_)
d:/simplicitystudio-5/developer/toolchains/gnu_arm/12.2.rel1_2023.7/bin/../lib/gcc/arm-none-eabi/12.2.1/thumb/v7e-m+fp/softfp\libc_nano.a(libc_a-findfp.o)
                              d:/simplicitystudio-5/developer/toolchains/gnu_arm/12.2.rel1_2023.7/bin/../lib/gcc/arm-none-eabi/12.2.1/thumb/v7e-m+fp/softfp\libc_nano.a(libc_a-exit.o) (__stdio_exit_handler)
d:/simplicitystudio-5/developer/toolchains/gnu_arm/12.2.rel1_2023.7/bin/../lib/gcc/arm-none-eabi/12.2.1/thumb/v7e-m+fp/softfp\libc_nano.a(libc_a-fprintf.o)
                              d:/simplicitystudio-5/developer/toolchains/gnu_arm/12.2.rel1_2023.7/bin/../lib/gcc/arm-none-eabi/12.2.1/thumb/v7e-m+fp/softfp\libc_nano.a(libc_a-assert.o) (fiprintf)
d:/simplicitystudio-5/developer/toolchains/gnu_arm/12.2.rel1_2023.7/bin/../lib/gcc/arm-none-eabi/12.2.1/thumb/v7e-m+fp/softfp\libc_nano.a(libc_a-fwalk.o)
                              d:/simplicitystudio-5/developer/toolchains/gnu_arm/12.2.rel1_2023.7/bin/../lib/gcc/arm-none-eabi/12.2.1/thumb/v7e-m+fp/softfp\libc_nano.a(libc_a-findfp.o) (_fwalk_sglue)
d:/simplicitystudio-5/developer/toolchains/gnu_arm/12.2.rel1_2023.7/bin/../lib/gcc/arm-none-eabi/12.2.1/thumb/v7e-m+fp/softfp\libc_nano.a(libc_a-stdio.o)
                              d:/simplicitystudio-5/developer/toolchains/gnu_arm/12.2.rel1_2023.7/bin/../lib/gcc/arm-none-eabi/12.2.1/thumb/v7e-m+fp/softfp\libc_nano.a(libc_a-findfp.o) (__sread)
d:/simplicitystudio-5/developer/toolchains/gnu_arm/12.2.rel1_2023.7/bin/../lib/gcc/arm-none-eabi/12.2.1/thumb/v7e-m+fp/softfp\libc_nano.a(libc_a-vsnprintf.o)
                              ./nv_usart.o (vsnprintf)
d:/simplicitystudio-5/developer/toolchains/gnu_arm/12.2.rel1_2023.7/bin/../lib/gcc/arm-none-eabi/12.2.1/thumb/v7e-m+fp/softfp\libc_nano.a(libc_a-memset.o)
                              d:/simplicitystudio-5/developer/toolchains/gnu_arm/12.2.rel1_2023.7/bin/../lib/gcc/arm-none-eabi/12.2.1/thumb/v7e-m+fp/softfp/crt0.o (memset)
d:/simplicitystudio-5/developer/toolchains/gnu_arm/12.2.rel1_2023.7/bin/../lib/gcc/arm-none-eabi/12.2.1/thumb/v7e-m+fp/softfp\libc_nano.a(libc_a-strncmp.o)
                              ./app.o (strncmp)
d:/simplicitystudio-5/developer/toolchains/gnu_arm/12.2.rel1_2023.7/bin/../lib/gcc/arm-none-eabi/12.2.1/thumb/v7e-m+fp/softfp\libc_nano.a(libc_a-closer.o)
                              d:/simplicitystudio-5/developer/toolchains/gnu_arm/12.2.rel1_2023.7/bin/../lib/gcc/arm-none-eabi/12.2.1/thumb/v7e-m+fp/softfp\libc_nano.a(libc_a-stdio.o) (_close_r)
d:/simplicitystudio-5/developer/toolchains/gnu_arm/12.2.rel1_2023.7/bin/../lib/gcc/arm-none-eabi/12.2.1/thumb/v7e-m+fp/softfp\libc_nano.a(libc_a-reent.o)
                              d:/simplicitystudio-5/developer/toolchains/gnu_arm/12.2.rel1_2023.7/bin/../lib/gcc/arm-none-eabi/12.2.1/thumb/v7e-m+fp/softfp\libc_nano.a(libc_a-closer.o) (errno)
d:/simplicitystudio-5/developer/toolchains/gnu_arm/12.2.rel1_2023.7/bin/../lib/gcc/arm-none-eabi/12.2.1/thumb/v7e-m+fp/softfp\libc_nano.a(libc_a-impure.o)
                              d:/simplicitystudio-5/developer/toolchains/gnu_arm/12.2.rel1_2023.7/bin/../lib/gcc/arm-none-eabi/12.2.1/thumb/v7e-m+fp/softfp\libc_nano.a(libc_a-assert.o) (_impure_ptr)
d:/simplicitystudio-5/developer/toolchains/gnu_arm/12.2.rel1_2023.7/bin/../lib/gcc/arm-none-eabi/12.2.1/thumb/v7e-m+fp/softfp\libc_nano.a(libc_a-lseekr.o)
                              d:/simplicitystudio-5/developer/toolchains/gnu_arm/12.2.rel1_2023.7/bin/../lib/gcc/arm-none-eabi/12.2.1/thumb/v7e-m+fp/softfp\libc_nano.a(libc_a-stdio.o) (_lseek_r)
d:/simplicitystudio-5/developer/toolchains/gnu_arm/12.2.rel1_2023.7/bin/../lib/gcc/arm-none-eabi/12.2.1/thumb/v7e-m+fp/softfp\libc_nano.a(libc_a-readr.o)
                              d:/simplicitystudio-5/developer/toolchains/gnu_arm/12.2.rel1_2023.7/bin/../lib/gcc/arm-none-eabi/12.2.1/thumb/v7e-m+fp/softfp\libc_nano.a(libc_a-stdio.o) (_read_r)
d:/simplicitystudio-5/developer/toolchains/gnu_arm/12.2.rel1_2023.7/bin/../lib/gcc/arm-none-eabi/12.2.1/thumb/v7e-m+fp/softfp\libc_nano.a(libc_a-sbrkr.o)
                              d:/simplicitystudio-5/developer/toolchains/gnu_arm/12.2.rel1_2023.7/bin/../lib/gcc/arm-none-eabi/12.2.1/thumb/v7e-m+fp/softfp\libc_nano.a(libc_a-mallocr.o) (_sbrk_r)
d:/simplicitystudio-5/developer/toolchains/gnu_arm/12.2.rel1_2023.7/bin/../lib/gcc/arm-none-eabi/12.2.1/thumb/v7e-m+fp/softfp\libc_nano.a(libc_a-writer.o)
                              d:/simplicitystudio-5/developer/toolchains/gnu_arm/12.2.rel1_2023.7/bin/../lib/gcc/arm-none-eabi/12.2.1/thumb/v7e-m+fp/softfp\libc_nano.a(libc_a-stdio.o) (_write_r)
d:/simplicitystudio-5/developer/toolchains/gnu_arm/12.2.rel1_2023.7/bin/../lib/gcc/arm-none-eabi/12.2.1/thumb/v7e-m+fp/softfp\libc_nano.a(libc_a-errno.o)
                              d:/simplicitystudio-5/developer/toolchains/gnu_arm/12.2.rel1_2023.7/bin/../lib/gcc/arm-none-eabi/12.2.1/thumb/v7e-m+fp/softfp\libc_nano.a(libc_a-strtol.o) (__errno)
d:/simplicitystudio-5/developer/toolchains/gnu_arm/12.2.rel1_2023.7/bin/../lib/gcc/arm-none-eabi/12.2.1/thumb/v7e-m+fp/softfp\libc_nano.a(libc_a-init.o)
                              d:/simplicitystudio-5/developer/toolchains/gnu_arm/12.2.rel1_2023.7/bin/../lib/gcc/arm-none-eabi/12.2.1/thumb/v7e-m+fp/softfp/crt0.o (__libc_init_array)
d:/simplicitystudio-5/developer/toolchains/gnu_arm/12.2.rel1_2023.7/bin/../lib/gcc/arm-none-eabi/12.2.1/thumb/v7e-m+fp/softfp\libc_nano.a(libc_a-lock.o)
                              d:/simplicitystudio-5/developer/toolchains/gnu_arm/12.2.rel1_2023.7/bin/../lib/gcc/arm-none-eabi/12.2.1/thumb/v7e-m+fp/softfp\libc_nano.a(libc_a-findfp.o) (__retarget_lock_init_recursive)
d:/simplicitystudio-5/developer/toolchains/gnu_arm/12.2.rel1_2023.7/bin/../lib/gcc/arm-none-eabi/12.2.1/thumb/v7e-m+fp/softfp\libc_nano.a(libc_a-strcmp.o)
                              ./app.o (strcmp)
d:/simplicitystudio-5/developer/toolchains/gnu_arm/12.2.rel1_2023.7/bin/../lib/gcc/arm-none-eabi/12.2.1/thumb/v7e-m+fp/softfp\libc_nano.a(libc_a-memcpy-stub.o)
                              ./app.o (memcpy)
d:/simplicitystudio-5/developer/toolchains/gnu_arm/12.2.rel1_2023.7/bin/../lib/gcc/arm-none-eabi/12.2.1/thumb/v7e-m+fp/softfp\libc_nano.a(libm_a-s_ldexp.o)
                              ./app.o (ldexp)
d:/simplicitystudio-5/developer/toolchains/gnu_arm/12.2.rel1_2023.7/bin/../lib/gcc/arm-none-eabi/12.2.1/thumb/v7e-m+fp/softfp\libc_nano.a(libm_a-s_scalbn.o)
                              d:/simplicitystudio-5/developer/toolchains/gnu_arm/12.2.rel1_2023.7/bin/../lib/gcc/arm-none-eabi/12.2.1/thumb/v7e-m+fp/softfp\libc_nano.a(libm_a-s_ldexp.o) (scalbn)
d:/simplicitystudio-5/developer/toolchains/gnu_arm/12.2.rel1_2023.7/bin/../lib/gcc/arm-none-eabi/12.2.1/thumb/v7e-m+fp/softfp\libc_nano.a(libm_a-s_finite.o)
                              d:/simplicitystudio-5/developer/toolchains/gnu_arm/12.2.rel1_2023.7/bin/../lib/gcc/arm-none-eabi/12.2.1/thumb/v7e-m+fp/softfp\libc_nano.a(libm_a-s_ldexp.o) (finite)
d:/simplicitystudio-5/developer/toolchains/gnu_arm/12.2.rel1_2023.7/bin/../lib/gcc/arm-none-eabi/12.2.1/thumb/v7e-m+fp/softfp\libc_nano.a(libc_a-abort.o)
                              d:/simplicitystudio-5/developer/toolchains/gnu_arm/12.2.rel1_2023.7/bin/../lib/gcc/arm-none-eabi/12.2.1/thumb/v7e-m+fp/softfp\libc_nano.a(libc_a-assert.o) (abort)
d:/simplicitystudio-5/developer/toolchains/gnu_arm/12.2.rel1_2023.7/bin/../lib/gcc/arm-none-eabi/12.2.1/thumb/v7e-m+fp/softfp\libc_nano.a(libc_a-freer.o)
                              d:/simplicitystudio-5/developer/toolchains/gnu_arm/12.2.rel1_2023.7/bin/../lib/gcc/arm-none-eabi/12.2.1/thumb/v7e-m+fp/softfp\libc_nano.a(libc_a-malloc.o) (_free_r)
d:/simplicitystudio-5/developer/toolchains/gnu_arm/12.2.rel1_2023.7/bin/../lib/gcc/arm-none-eabi/12.2.1/thumb/v7e-m+fp/softfp\libc_nano.a(libc_a-msizer.o)
                              d:/simplicitystudio-5/developer/toolchains/gnu_arm/12.2.rel1_2023.7/bin/../lib/gcc/arm-none-eabi/12.2.1/thumb/v7e-m+fp/softfp\libc_nano.a(libc_a-reallocr.o) (_malloc_usable_size_r)
d:/simplicitystudio-5/developer/toolchains/gnu_arm/12.2.rel1_2023.7/bin/../lib/gcc/arm-none-eabi/12.2.1/thumb/v7e-m+fp/softfp\libc_nano.a(libc_a-nano-svfprintf.o)
                              d:/simplicitystudio-5/developer/toolchains/gnu_arm/12.2.rel1_2023.7/bin/../lib/gcc/arm-none-eabi/12.2.1/thumb/v7e-m+fp/softfp\libc_nano.a(libc_a-vsnprintf.o) (_svfprintf_r)
d:/simplicitystudio-5/developer/toolchains/gnu_arm/12.2.rel1_2023.7/bin/../lib/gcc/arm-none-eabi/12.2.1/thumb/v7e-m+fp/softfp\libc_nano.a(libc_a-nano-vfprintf.o)
                              d:/simplicitystudio-5/developer/toolchains/gnu_arm/12.2.rel1_2023.7/bin/../lib/gcc/arm-none-eabi/12.2.1/thumb/v7e-m+fp/softfp\libc_nano.a(libc_a-fprintf.o) (_vfprintf_r)
d:/simplicitystudio-5/developer/toolchains/gnu_arm/12.2.rel1_2023.7/bin/../lib/gcc/arm-none-eabi/12.2.1/thumb/v7e-m+fp/softfp\libc_nano.a(libc_a-nano-vfprintf_i.o)
                              d:/simplicitystudio-5/developer/toolchains/gnu_arm/12.2.rel1_2023.7/bin/../lib/gcc/arm-none-eabi/12.2.1/thumb/v7e-m+fp/softfp\libc_nano.a(libc_a-nano-svfprintf.o) (_printf_i)
d:/simplicitystudio-5/developer/toolchains/gnu_arm/12.2.rel1_2023.7/bin/../lib/gcc/arm-none-eabi/12.2.1/thumb/v7e-m+fp/softfp\libc_nano.a(libc_a-fflush.o)
                              d:/simplicitystudio-5/developer/toolchains/gnu_arm/12.2.rel1_2023.7/bin/../lib/gcc/arm-none-eabi/12.2.1/thumb/v7e-m+fp/softfp\libc_nano.a(libc_a-findfp.o) (_fflush_r)
d:/simplicitystudio-5/developer/toolchains/gnu_arm/12.2.rel1_2023.7/bin/../lib/gcc/arm-none-eabi/12.2.1/thumb/v7e-m+fp/softfp\libc_nano.a(libc_a-fvwrite.o)
                              d:/simplicitystudio-5/developer/toolchains/gnu_arm/12.2.rel1_2023.7/bin/../lib/gcc/arm-none-eabi/12.2.1/thumb/v7e-m+fp/softfp\libc_nano.a(libc_a-nano-vfprintf.o) (__sfvwrite_r)
d:/simplicitystudio-5/developer/toolchains/gnu_arm/12.2.rel1_2023.7/bin/../lib/gcc/arm-none-eabi/12.2.1/thumb/v7e-m+fp/softfp\libc_nano.a(libc_a-wbuf.o)
                              d:/simplicitystudio-5/developer/toolchains/gnu_arm/12.2.rel1_2023.7/bin/../lib/gcc/arm-none-eabi/12.2.1/thumb/v7e-m+fp/softfp\libc_nano.a(libc_a-nano-vfprintf.o) (__swbuf_r)
d:/simplicitystudio-5/developer/toolchains/gnu_arm/12.2.rel1_2023.7/bin/../lib/gcc/arm-none-eabi/12.2.1/thumb/v7e-m+fp/softfp\libc_nano.a(libc_a-wsetup.o)
                              d:/simplicitystudio-5/developer/toolchains/gnu_arm/12.2.rel1_2023.7/bin/../lib/gcc/arm-none-eabi/12.2.1/thumb/v7e-m+fp/softfp\libc_nano.a(libc_a-nano-vfprintf.o) (__swsetup_r)
d:/simplicitystudio-5/developer/toolchains/gnu_arm/12.2.rel1_2023.7/bin/../lib/gcc/arm-none-eabi/12.2.1/thumb/v7e-m+fp/softfp\libc_nano.a(libc_a-memmove.o)
                              d:/simplicitystudio-5/developer/toolchains/gnu_arm/12.2.rel1_2023.7/bin/../lib/gcc/arm-none-eabi/12.2.1/thumb/v7e-m+fp/softfp\libc_nano.a(libc_a-nano-svfprintf.o) (memmove)
d:/simplicitystudio-5/developer/toolchains/gnu_arm/12.2.rel1_2023.7/bin/../lib/gcc/arm-none-eabi/12.2.1/thumb/v7e-m+fp/softfp\libc_nano.a(libc_a-signal.o)
                              d:/simplicitystudio-5/developer/toolchains/gnu_arm/12.2.rel1_2023.7/bin/../lib/gcc/arm-none-eabi/12.2.1/thumb/v7e-m+fp/softfp\libc_nano.a(libc_a-abort.o) (raise)
d:/simplicitystudio-5/developer/toolchains/gnu_arm/12.2.rel1_2023.7/bin/../lib/gcc/arm-none-eabi/12.2.1/thumb/v7e-m+fp/softfp\libc_nano.a(libc_a-signalr.o)
                              d:/simplicitystudio-5/developer/toolchains/gnu_arm/12.2.rel1_2023.7/bin/../lib/gcc/arm-none-eabi/12.2.1/thumb/v7e-m+fp/softfp\libc_nano.a(libc_a-signal.o) (_kill_r)
d:/simplicitystudio-5/developer/toolchains/gnu_arm/12.2.rel1_2023.7/bin/../lib/gcc/arm-none-eabi/12.2.1/thumb/v7e-m+fp/softfp\libc_nano.a(libc_a-memchr.o)
                              d:/simplicitystudio-5/developer/toolchains/gnu_arm/12.2.rel1_2023.7/bin/../lib/gcc/arm-none-eabi/12.2.1/thumb/v7e-m+fp/softfp\libc_nano.a(libc_a-nano-svfprintf.o) (memchr)
d:/simplicitystudio-5/developer/toolchains/gnu_arm/12.2.rel1_2023.7/bin/../lib/gcc/arm-none-eabi/12.2.1/thumb/v7e-m+fp/softfp\libc_nano.a(libc_a-makebuf.o)
                              d:/simplicitystudio-5/developer/toolchains/gnu_arm/12.2.rel1_2023.7/bin/../lib/gcc/arm-none-eabi/12.2.1/thumb/v7e-m+fp/softfp\libc_nano.a(libc_a-wsetup.o) (__smakebuf_r)
d:/simplicitystudio-5/developer/toolchains/gnu_arm/12.2.rel1_2023.7/bin/../lib/gcc/arm-none-eabi/12.2.1/thumb/v7e-m+fp/softfp\libc_nano.a(libc_a-fstatr.o)
                              d:/simplicitystudio-5/developer/toolchains/gnu_arm/12.2.rel1_2023.7/bin/../lib/gcc/arm-none-eabi/12.2.1/thumb/v7e-m+fp/softfp\libc_nano.a(libc_a-makebuf.o) (_fstat_r)
d:/simplicitystudio-5/developer/toolchains/gnu_arm/12.2.rel1_2023.7/bin/../lib/gcc/arm-none-eabi/12.2.1/thumb/v7e-m+fp/softfp\libc_nano.a(libc_a-isattyr.o)
                              d:/simplicitystudio-5/developer/toolchains/gnu_arm/12.2.rel1_2023.7/bin/../lib/gcc/arm-none-eabi/12.2.1/thumb/v7e-m+fp/softfp\libc_nano.a(libc_a-makebuf.o) (_isatty_r)
d:/simplicitystudio-5/developer/toolchains/gnu_arm/12.2.rel1_2023.7/bin/../lib/gcc/arm-none-eabi/12.2.1/thumb/v7e-m+fp/softfp\libm.a(libm_a-w_pow.o)
                              ./app.o (pow)
d:/simplicitystudio-5/developer/toolchains/gnu_arm/12.2.rel1_2023.7/bin/../lib/gcc/arm-none-eabi/12.2.1/thumb/v7e-m+fp/softfp\libm.a(libm_a-e_pow.o)
                              d:/simplicitystudio-5/developer/toolchains/gnu_arm/12.2.rel1_2023.7/bin/../lib/gcc/arm-none-eabi/12.2.1/thumb/v7e-m+fp/softfp\libm.a(libm_a-w_pow.o) (__ieee754_pow)
d:/simplicitystudio-5/developer/toolchains/gnu_arm/12.2.rel1_2023.7/bin/../lib/gcc/arm-none-eabi/12.2.1/thumb/v7e-m+fp/softfp\libm.a(libm_a-s_fabs.o)
                              d:/simplicitystudio-5/developer/toolchains/gnu_arm/12.2.rel1_2023.7/bin/../lib/gcc/arm-none-eabi/12.2.1/thumb/v7e-m+fp/softfp\libm.a(libm_a-e_pow.o) (fabs)
d:/simplicitystudio-5/developer/toolchains/gnu_arm/12.2.rel1_2023.7/bin/../lib/gcc/arm-none-eabi/12.2.1/thumb/v7e-m+fp/softfp\libm.a(libm_a-math_err.o)
                              d:/simplicitystudio-5/developer/toolchains/gnu_arm/12.2.rel1_2023.7/bin/../lib/gcc/arm-none-eabi/12.2.1/thumb/v7e-m+fp/softfp\libm.a(libm_a-e_pow.o) (__math_uflow)
d:/simplicitystudio-5/developer/toolchains/gnu_arm/12.2.rel1_2023.7/bin/../lib/gcc/arm-none-eabi/12.2.1/thumb/v7e-m+fp/softfp\libm.a(libm_a-e_sqrt.o)
                              d:/simplicitystudio-5/developer/toolchains/gnu_arm/12.2.rel1_2023.7/bin/../lib/gcc/arm-none-eabi/12.2.1/thumb/v7e-m+fp/softfp\libm.a(libm_a-e_pow.o) (__ieee754_sqrt)
d:/simplicitystudio-5/developer/toolchains/gnu_arm/12.2.rel1_2023.7/bin/../lib/gcc/arm-none-eabi/12.2.1/thumb/v7e-m+fp/softfp\libgcc.a(_arm_muldivdf3.o)
                              d:/simplicitystudio-5/developer/toolchains/gnu_arm/12.2.rel1_2023.7/bin/../lib/gcc/arm-none-eabi/12.2.1/thumb/v7e-m+fp/softfp\libm.a(libm_a-e_pow.o) (__aeabi_ddiv)
d:/simplicitystudio-5/developer/toolchains/gnu_arm/12.2.rel1_2023.7/bin/../lib/gcc/arm-none-eabi/12.2.1/thumb/v7e-m+fp/softfp\libgcc.a(_arm_cmpdf2.o)
                              d:/simplicitystudio-5/developer/toolchains/gnu_arm/12.2.rel1_2023.7/bin/../lib/gcc/arm-none-eabi/12.2.1/thumb/v7e-m+fp/softfp\libc_nano.a(libm_a-s_ldexp.o) (__aeabi_dcmpeq)
d:/simplicitystudio-5/developer/toolchains/gnu_arm/12.2.rel1_2023.7/bin/../lib/gcc/arm-none-eabi/12.2.1/thumb/v7e-m+fp/softfp\libgcc.a(_arm_unorddf2.o)
                              d:/simplicitystudio-5/developer/toolchains/gnu_arm/12.2.rel1_2023.7/bin/../lib/gcc/arm-none-eabi/12.2.1/thumb/v7e-m+fp/softfp\libm.a(libm_a-w_pow.o) (__aeabi_dcmpun)

Discarded input sections

 .text          0x00000000        0x0 d:/simplicitystudio-5/developer/toolchains/gnu_arm/12.2.rel1_2023.7/bin/../lib/gcc/arm-none-eabi/12.2.1/thumb/v7e-m+fp/softfp/crti.o
 .data          0x00000000        0x0 d:/simplicitystudio-5/developer/toolchains/gnu_arm/12.2.rel1_2023.7/bin/../lib/gcc/arm-none-eabi/12.2.1/thumb/v7e-m+fp/softfp/crti.o
 .bss           0x00000000        0x0 d:/simplicitystudio-5/developer/toolchains/gnu_arm/12.2.rel1_2023.7/bin/../lib/gcc/arm-none-eabi/12.2.1/thumb/v7e-m+fp/softfp/crti.o
 .text          0x00000000        0x0 d:/simplicitystudio-5/developer/toolchains/gnu_arm/12.2.rel1_2023.7/bin/../lib/gcc/arm-none-eabi/12.2.1/thumb/v7e-m+fp/softfp/crtbegin.o
 .data          0x00000000        0x0 d:/simplicitystudio-5/developer/toolchains/gnu_arm/12.2.rel1_2023.7/bin/../lib/gcc/arm-none-eabi/12.2.1/thumb/v7e-m+fp/softfp/crtbegin.o
 .bss           0x00000000        0x0 d:/simplicitystudio-5/developer/toolchains/gnu_arm/12.2.rel1_2023.7/bin/../lib/gcc/arm-none-eabi/12.2.1/thumb/v7e-m+fp/softfp/crtbegin.o
 .rodata.all_implied_fbits
                0x00000000       0x24 d:/simplicitystudio-5/developer/toolchains/gnu_arm/12.2.rel1_2023.7/bin/../lib/gcc/arm-none-eabi/12.2.1/thumb/v7e-m+fp/softfp/crtbegin.o
 .data.__dso_handle
                0x00000000        0x4 d:/simplicitystudio-5/developer/toolchains/gnu_arm/12.2.rel1_2023.7/bin/../lib/gcc/arm-none-eabi/12.2.1/thumb/v7e-m+fp/softfp/crtbegin.o
 .data          0x00000000        0x0 d:/simplicitystudio-5/developer/toolchains/gnu_arm/12.2.rel1_2023.7/bin/../lib/gcc/arm-none-eabi/12.2.1/thumb/v7e-m+fp/softfp/crt0.o
 .bss           0x00000000        0x0 d:/simplicitystudio-5/developer/toolchains/gnu_arm/12.2.rel1_2023.7/bin/../lib/gcc/arm-none-eabi/12.2.1/thumb/v7e-m+fp/softfp/crt0.o
 .ARM.extab     0x00000000        0x0 d:/simplicitystudio-5/developer/toolchains/gnu_arm/12.2.rel1_2023.7/bin/../lib/gcc/arm-none-eabi/12.2.1/thumb/v7e-m+fp/softfp/crt0.o
 .text          0x00000000        0x0 ./app.o
 .data          0x00000000        0x0 ./app.o
 .bss           0x00000000        0x0 ./app.o
 .text.stbi__start_callbacks
                0x00000000       0x3c ./app.o
 .text.stbi__hdr_info
                0x00000000       0xd0 ./app.o
 .text.stbi__load_gif_main_outofmem
                0x00000000       0x44 ./app.o
 .text.stbi__load_gif_main
                0x00000000      0x178 ./app.o
 .text.stbi_failure_reason
                0x00000000       0x10 ./app.o
 .text.stbi_image_free
                0x00000000        0x4 ./app.o
 .text.stbi_set_flip_vertically_on_load
                0x00000000        0xc ./app.o
 .text.stbi_set_flip_vertically_on_load_thread
                0x00000000       0x20 ./app.o
 .text.stbi_load_gif_from_memory
                0x00000000       0x98 ./app.o
 .text.stbi_is_hdr_from_memory
                0x00000000       0x22 ./app.o
 .text.stbi_is_hdr_from_callbacks
                0x00000000       0x1a ./app.o
 .text.stbi_ldr_to_hdr_gamma
                0x00000000        0xc ./app.o
 .text.stbi_ldr_to_hdr_scale
                0x00000000        0xc ./app.o
 .text.stbi_hdr_to_ldr_gamma
                0x00000000       0x18 ./app.o
 .text.stbi_hdr_to_ldr_scale
                0x00000000       0x18 ./app.o
 .text.stbi_zlib_decode_malloc_guesssize
                0x00000000       0x4a ./app.o
 .text.stbi_zlib_decode_malloc
                0x00000000        0xa ./app.o
 .text.stbi__load_and_postprocess_16bit
                0x00000000       0xdc ./app.o
 .text.stbi_load_16_from_memory
                0x00000000       0x2c ./app.o
 .text.stbi_load_16_from_callbacks
                0x00000000       0x26 ./app.o
 .text.stbi_load_from_callbacks
                0x00000000       0x26 ./app.o
 .text.stbi__loadf_main
                0x00000000      0x1ac ./app.o
 .text.stbi_loadf_from_memory
                0x00000000       0x2c ./app.o
 .text.stbi_loadf_from_callbacks
                0x00000000       0x26 ./app.o
 .text.stbi__info_main
                0x00000000      0x420 ./app.o
 .text.stbi__is_16_main
                0x00000000       0x90 ./app.o
 .text.stbi_zlib_decode_buffer
                0x00000000       0x36 ./app.o
 .text.stbi_zlib_decode_noheader_malloc
                0x00000000       0x4e ./app.o
 .text.stbi_zlib_decode_noheader_buffer
                0x00000000       0x34 ./app.o
 .text.stbi_set_unpremultiply_on_load
                0x00000000        0xc ./app.o
 .text.stbi_convert_iphone_png_to_rgb
                0x00000000        0xc ./app.o
 .text.stbi_set_unpremultiply_on_load_thread
                0x00000000       0x20 ./app.o
 .text.stbi_convert_iphone_png_to_rgb_thread
                0x00000000       0x20 ./app.o
 .text.stbi_info_from_memory
                0x00000000       0x28 ./app.o
 .text.stbi_info_from_callbacks
                0x00000000       0x22 ./app.o
 .text.stbi_is_16_bit_from_memory
                0x00000000       0x22 ./app.o
 .text.stbi_is_16_bit_from_callbacks
                0x00000000       0x1a ./app.o
 .rodata.__func__.21
                0x00000000       0x21 ./app.o
 .rodata.frame2_jpg_len
                0x00000000        0x4 ./app.o
 .rodata.frame1_jpg_len
                0x00000000        0x4 ./app.o
 .data.stbi__l2h_scale
                0x00000000        0x4 ./app.o
 .data.stbi__l2h_gamma
                0x00000000        0x4 ./app.o
 .text          0x00000000        0x0 ./main.o
 .data          0x00000000        0x0 ./main.o
 .bss           0x00000000        0x0 ./main.o
 .text          0x00000000        0x0 ./nv_optical_flow.o
 .data          0x00000000        0x0 ./nv_optical_flow.o
 .bss           0x00000000        0x0 ./nv_optical_flow.o
 .text          0x00000000        0x0 ./nv_usart.o
 .data          0x00000000        0x0 ./nv_usart.o
 .bss           0x00000000        0x0 ./nv_usart.o
 .text.usart_set_tx_callback
                0x00000000        0xc ./nv_usart.o
 .text          0x00000000        0x0 ./autogen/sl_board_default_init.o
 .data          0x00000000        0x0 ./autogen/sl_board_default_init.o
 .bss           0x00000000        0x0 ./autogen/sl_board_default_init.o
 .text          0x00000000        0x0 ./autogen/sl_device_init_clocks.o
 .data          0x00000000        0x0 ./autogen/sl_device_init_clocks.o
 .bss           0x00000000        0x0 ./autogen/sl_device_init_clocks.o
 .text          0x00000000        0x0 ./autogen/sl_event_handler.o
 .data          0x00000000        0x0 ./autogen/sl_event_handler.o
 .bss           0x00000000        0x0 ./autogen/sl_event_handler.o
 .text          0x00000000        0x0 ./gecko_sdk_4.4.6/hardware/board/src/sl_board_control_gpio.o
 .data          0x00000000        0x0 ./gecko_sdk_4.4.6/hardware/board/src/sl_board_control_gpio.o
 .bss           0x00000000        0x0 ./gecko_sdk_4.4.6/hardware/board/src/sl_board_control_gpio.o
 .text.sl_board_enable_vcom
                0x00000000       0x12 ./gecko_sdk_4.4.6/hardware/board/src/sl_board_control_gpio.o
 .text.sl_board_enable_display
                0x00000000       0x12 ./gecko_sdk_4.4.6/hardware/board/src/sl_board_control_gpio.o
 .text.sl_board_disable_display
                0x00000000       0x12 ./gecko_sdk_4.4.6/hardware/board/src/sl_board_control_gpio.o
 .rodata.sl_board_enable_sensor.str1.1
                0x00000000       0x38 ./gecko_sdk_4.4.6/hardware/board/src/sl_board_control_gpio.o
 .text.sl_board_enable_sensor
                0x00000000       0x60 ./gecko_sdk_4.4.6/hardware/board/src/sl_board_control_gpio.o
 .text.sl_board_disable_sensor
                0x00000000       0x6c ./gecko_sdk_4.4.6/hardware/board/src/sl_board_control_gpio.o
 .text.sl_board_enable_memory
                0x00000000       0x28 ./gecko_sdk_4.4.6/hardware/board/src/sl_board_control_gpio.o
 .text.sl_board_disable_memory
                0x00000000       0x28 ./gecko_sdk_4.4.6/hardware/board/src/sl_board_control_gpio.o
 .text.sl_board_enable_oscillator
                0x00000000       0x20 ./gecko_sdk_4.4.6/hardware/board/src/sl_board_control_gpio.o
 .text.sl_board_disable_oscillator
                0x00000000       0x20 ./gecko_sdk_4.4.6/hardware/board/src/sl_board_control_gpio.o
 .text          0x00000000        0x0 ./gecko_sdk_4.4.6/hardware/board/src/sl_board_init.o
 .data          0x00000000        0x0 ./gecko_sdk_4.4.6/hardware/board/src/sl_board_init.o
 .bss           0x00000000        0x0 ./gecko_sdk_4.4.6/hardware/board/src/sl_board_init.o
 .text          0x00000000        0x0 ./gecko_sdk_4.4.6/hardware/driver/configuration_over_swo/src/sl_cos.o
 .data          0x00000000        0x0 ./gecko_sdk_4.4.6/hardware/driver/configuration_over_swo/src/sl_cos.o
 .bss           0x00000000        0x0 ./gecko_sdk_4.4.6/hardware/driver/configuration_over_swo/src/sl_cos.o
 .text.sli_cos_swo_itm_8_write.constprop.0.isra.0
                0x00000000       0x78 ./gecko_sdk_4.4.6/hardware/driver/configuration_over_swo/src/sl_cos.o
 .text.sl_cos_config_pti
                0x00000000       0x26 ./gecko_sdk_4.4.6/hardware/driver/configuration_over_swo/src/sl_cos.o
 .text.sl_cos_config_vcom
                0x00000000       0x1e ./gecko_sdk_4.4.6/hardware/driver/configuration_over_swo/src/sl_cos.o
 .text          0x00000000        0x0 ./gecko_sdk_4.4.6/hardware/driver/mx25_flash_shutdown/src/sl_mx25_flash_shutdown_usart/sl_mx25_flash_shutdown.o
 .data          0x00000000        0x0 ./gecko_sdk_4.4.6/hardware/driver/mx25_flash_shutdown/src/sl_mx25_flash_shutdown_usart/sl_mx25_flash_shutdown.o
 .bss           0x00000000        0x0 ./gecko_sdk_4.4.6/hardware/driver/mx25_flash_shutdown/src/sl_mx25_flash_shutdown_usart/sl_mx25_flash_shutdown.o
 .text          0x00000000        0x0 ./gecko_sdk_4.4.6/platform/Device/SiliconLabs/EFR32MG12P/Source/startup_efr32mg12p.o
 .data          0x00000000        0x0 ./gecko_sdk_4.4.6/platform/Device/SiliconLabs/EFR32MG12P/Source/startup_efr32mg12p.o
 .bss           0x00000000        0x0 ./gecko_sdk_4.4.6/platform/Device/SiliconLabs/EFR32MG12P/Source/startup_efr32mg12p.o
 .text          0x00000000        0x0 ./gecko_sdk_4.4.6/platform/Device/SiliconLabs/EFR32MG12P/Source/system_efr32mg12p.o
 .data          0x00000000        0x0 ./gecko_sdk_4.4.6/platform/Device/SiliconLabs/EFR32MG12P/Source/system_efr32mg12p.o
 .bss           0x00000000        0x0 ./gecko_sdk_4.4.6/platform/Device/SiliconLabs/EFR32MG12P/Source/system_efr32mg12p.o
 .text.SystemLFXOClockSet
                0x00000000       0x20 ./gecko_sdk_4.4.6/platform/Device/SiliconLabs/EFR32MG12P/Source/system_efr32mg12p.o
 .text          0x00000000        0x0 ./gecko_sdk_4.4.6/platform/common/src/sl_assert.o
 .data          0x00000000        0x0 ./gecko_sdk_4.4.6/platform/common/src/sl_assert.o
 .bss           0x00000000        0x0 ./gecko_sdk_4.4.6/platform/common/src/sl_assert.o
 .text          0x00000000        0x0 ./gecko_sdk_4.4.6/platform/common/src/sl_syscalls.o
 .data          0x00000000        0x0 ./gecko_sdk_4.4.6/platform/common/src/sl_syscalls.o
 .bss           0x00000000        0x0 ./gecko_sdk_4.4.6/platform/common/src/sl_syscalls.o
 .text._gettimeofday
                0x00000000        0x4 ./gecko_sdk_4.4.6/platform/common/src/sl_syscalls.o
 .text          0x00000000        0x0 ./gecko_sdk_4.4.6/platform/common/toolchain/src/sl_memory.o
 .data          0x00000000        0x0 ./gecko_sdk_4.4.6/platform/common/toolchain/src/sl_memory.o
 .bss           0x00000000        0x0 ./gecko_sdk_4.4.6/platform/common/toolchain/src/sl_memory.o
 .text.sl_memory_get_stack_region
                0x00000000       0x10 ./gecko_sdk_4.4.6/platform/common/toolchain/src/sl_memory.o
 .text.sl_memory_get_heap_region
                0x00000000       0x14 ./gecko_sdk_4.4.6/platform/common/toolchain/src/sl_memory.o
 .text          0x00000000        0x0 ./gecko_sdk_4.4.6/platform/driver/debug/src/sl_debug_swo.o
 .data          0x00000000        0x0 ./gecko_sdk_4.4.6/platform/driver/debug/src/sl_debug_swo.o
 .bss           0x00000000        0x0 ./gecko_sdk_4.4.6/platform/driver/debug/src/sl_debug_swo.o
 .text.sl_debug_swo_write_u8
                0x00000000       0x44 ./gecko_sdk_4.4.6/platform/driver/debug/src/sl_debug_swo.o
 .text.sl_debug_swo_write_u16
                0x00000000       0x44 ./gecko_sdk_4.4.6/platform/driver/debug/src/sl_debug_swo.o
 .text.sl_debug_swo_write_u32
                0x00000000       0x44 ./gecko_sdk_4.4.6/platform/driver/debug/src/sl_debug_swo.o
 .text          0x00000000        0x0 ./gecko_sdk_4.4.6/platform/emlib/src/em_cmu.o
 .data          0x00000000        0x0 ./gecko_sdk_4.4.6/platform/emlib/src/em_cmu.o
 .bss           0x00000000        0x0 ./gecko_sdk_4.4.6/platform/emlib/src/em_cmu.o
 .text.CMU_HFRCODevinfoGet
                0x00000000       0xb8 ./gecko_sdk_4.4.6/platform/emlib/src/em_cmu.o
 .rodata.CMU_PrescToLog2.str1.1
                0x00000000       0x56 ./gecko_sdk_4.4.6/platform/emlib/src/em_cmu.o
 .text.CMU_PrescToLog2
                0x00000000       0x54 ./gecko_sdk_4.4.6/platform/emlib/src/em_cmu.o
 .text.CMU_AUXHFRCOBandGet
                0x00000000        0xc ./gecko_sdk_4.4.6/platform/emlib/src/em_cmu.o
 .text.CMU_AUXHFRCOBandSet
                0x00000000      0x118 ./gecko_sdk_4.4.6/platform/emlib/src/em_cmu.o
 .text.CMU_Calibrate
                0x00000000       0x74 ./gecko_sdk_4.4.6/platform/emlib/src/em_cmu.o
 .text.CMU_CalibrateConfig
                0x00000000       0xa0 ./gecko_sdk_4.4.6/platform/emlib/src/em_cmu.o
 .text.CMU_CalibrateCountGet
                0x00000000       0x24 ./gecko_sdk_4.4.6/platform/emlib/src/em_cmu.o
 .text.CMU_ClockPrescSet
                0x00000000      0x28c ./gecko_sdk_4.4.6/platform/emlib/src/em_cmu.o
 .text.CMU_ClockDivSet
                0x00000000        0x6 ./gecko_sdk_4.4.6/platform/emlib/src/em_cmu.o
 .text.sli_em_cmu_SetHFLEConfigSystemCoreClock
                0x00000000        0xe ./gecko_sdk_4.4.6/platform/emlib/src/em_cmu.o
 .text.sli_em_cmu_SetHFLEConfigHFClock
                0x00000000        0xe ./gecko_sdk_4.4.6/platform/emlib/src/em_cmu.o
 .text.sli_em_cmu_HFClockSelectCLKIN0
                0x00000000       0x30 ./gecko_sdk_4.4.6/platform/emlib/src/em_cmu.o
 .text.CMU_LF_ClockPrecisionGet
                0x00000000       0x18 ./gecko_sdk_4.4.6/platform/emlib/src/em_cmu.o
 .text.CMU_HF_ClockPrecisionGet
                0x00000000       0x18 ./gecko_sdk_4.4.6/platform/emlib/src/em_cmu.o
 .text.CMU_DPLLLock
                0x00000000      0x1f0 ./gecko_sdk_4.4.6/platform/emlib/src/em_cmu.o
 .text.CMU_FreezeEnable
                0x00000000       0x20 ./gecko_sdk_4.4.6/platform/emlib/src/em_cmu.o
 .text.CMU_HFRCOBandGet
                0x00000000        0xc ./gecko_sdk_4.4.6/platform/emlib/src/em_cmu.o
 .text.CMU_HFRCOBandSet
                0x00000000      0x114 ./gecko_sdk_4.4.6/platform/emlib/src/em_cmu.o
 .text.CMU_LCDClkFDIVGet
                0x00000000        0x4 ./gecko_sdk_4.4.6/platform/emlib/src/em_cmu.o
 .text.CMU_LCDClkFDIVSet
                0x00000000        0x2 ./gecko_sdk_4.4.6/platform/emlib/src/em_cmu.o
 .text.CMU_LFXOPrecisionGet
                0x00000000        0xc ./gecko_sdk_4.4.6/platform/emlib/src/em_cmu.o
 .text.CMU_HFXOPrecisionGet
                0x00000000        0xc ./gecko_sdk_4.4.6/platform/emlib/src/em_cmu.o
 .text.CMU_OscillatorTuningGet
                0x00000000       0x54 ./gecko_sdk_4.4.6/platform/emlib/src/em_cmu.o
 .text.sli_em_cmu_HFClockSelectLFOsc
                0x00000000       0x64 ./gecko_sdk_4.4.6/platform/emlib/src/em_cmu.o
 .text.sli_em_cmu_HFClockSelectHFRCO
                0x00000000       0x84 ./gecko_sdk_4.4.6/platform/emlib/src/em_cmu.o
 .text.sli_em_cmu_HFClockSelectHFRCODIV2
                0x00000000       0x38 ./gecko_sdk_4.4.6/platform/emlib/src/em_cmu.o
 .text.CMU_ClockSelectSet
                0x00000000      0x248 ./gecko_sdk_4.4.6/platform/emlib/src/em_cmu.o
 .text.CMU_HFXOAutostartEnable
                0x00000000       0xa0 ./gecko_sdk_4.4.6/platform/emlib/src/em_cmu.o
 .text.CMU_PCNTClockExternalGet
                0x00000000       0x3c ./gecko_sdk_4.4.6/platform/emlib/src/em_cmu.o
 .rodata.CMU_PCNTClockExternalSet.str1.1
                0x00000000       0x29 ./gecko_sdk_4.4.6/platform/emlib/src/em_cmu.o
 .text.CMU_PCNTClockExternalSet
                0x00000000       0x3c ./gecko_sdk_4.4.6/platform/emlib/src/em_cmu.o
 .rodata.hfrcoCtrlTable
                0x00000000      0x150 ./gecko_sdk_4.4.6/platform/emlib/src/em_cmu.o
 .text          0x00000000        0x0 ./gecko_sdk_4.4.6/platform/emlib/src/em_core.o
 .data          0x00000000        0x0 ./gecko_sdk_4.4.6/platform/emlib/src/em_core.o
 .bss           0x00000000        0x0 ./gecko_sdk_4.4.6/platform/emlib/src/em_core.o
 .text.__NVIC_GetPriority
                0x00000000       0x24 ./gecko_sdk_4.4.6/platform/emlib/src/em_core.o
 .text.CORE_CriticalDisableIrq
                0x00000000        0x4 ./gecko_sdk_4.4.6/platform/emlib/src/em_core.o
 .text.CORE_CriticalEnableIrq
                0x00000000        0x4 ./gecko_sdk_4.4.6/platform/emlib/src/em_core.o
 .text.CORE_YieldCritical
                0x00000000       0x12 ./gecko_sdk_4.4.6/platform/emlib/src/em_core.o
 .text.CORE_AtomicDisableIrq
                0x00000000        0x8 ./gecko_sdk_4.4.6/platform/emlib/src/em_core.o
 .text.CORE_AtomicEnableIrq
                0x00000000        0x8 ./gecko_sdk_4.4.6/platform/emlib/src/em_core.o
 .text.CORE_YieldAtomic
                0x00000000       0x18 ./gecko_sdk_4.4.6/platform/emlib/src/em_core.o
 .text.CORE_EnterNvicMask
                0x00000000       0x2c ./gecko_sdk_4.4.6/platform/emlib/src/em_core.o
 .text.CORE_NvicDisableMask
                0x00000000       0x20 ./gecko_sdk_4.4.6/platform/emlib/src/em_core.o
 .text.CORE_NvicEnableMask
                0x00000000       0x20 ./gecko_sdk_4.4.6/platform/emlib/src/em_core.o
 .text.CORE_YieldNvicMask
                0x00000000       0x34 ./gecko_sdk_4.4.6/platform/emlib/src/em_core.o
 .rodata.CORE_NvicMaskSetIRQ.str1.1
                0x00000000       0x2a ./gecko_sdk_4.4.6/platform/emlib/src/em_core.o
 .text.CORE_NvicMaskSetIRQ
                0x00000000       0x30 ./gecko_sdk_4.4.6/platform/emlib/src/em_core.o
 .text.CORE_NvicMaskClearIRQ
                0x00000000       0x34 ./gecko_sdk_4.4.6/platform/emlib/src/em_core.o
 .text.CORE_InIrqContext
                0x00000000       0x14 ./gecko_sdk_4.4.6/platform/emlib/src/em_core.o
 .text.CORE_IrqIsDisabled
                0x00000000       0x1a ./gecko_sdk_4.4.6/platform/emlib/src/em_core.o
 .text.CORE_GetNvicEnabledMask
                0x00000000       0x20 ./gecko_sdk_4.4.6/platform/emlib/src/em_core.o
 .text.CORE_GetNvicMaskDisableState
                0x00000000       0x2c ./gecko_sdk_4.4.6/platform/emlib/src/em_core.o
 .text.CORE_NvicIRQDisabled
                0x00000000       0x34 ./gecko_sdk_4.4.6/platform/emlib/src/em_core.o
 .text.CORE_IrqIsBlocked
                0x00000000       0x6c ./gecko_sdk_4.4.6/platform/emlib/src/em_core.o
 .text.CORE_GetNvicRamTableHandler
                0x00000000       0x2c ./gecko_sdk_4.4.6/platform/emlib/src/em_core.o
 .text.CORE_SetNvicRamTableHandler
                0x00000000       0x30 ./gecko_sdk_4.4.6/platform/emlib/src/em_core.o
 .text.CORE_InitNvicVectorTable
                0x00000000       0xcc ./gecko_sdk_4.4.6/platform/emlib/src/em_core.o
 .text          0x00000000        0x0 ./gecko_sdk_4.4.6/platform/emlib/src/em_emu.o
 .data          0x00000000        0x0 ./gecko_sdk_4.4.6/platform/emlib/src/em_emu.o
 .bss           0x00000000        0x0 ./gecko_sdk_4.4.6/platform/emlib/src/em_emu.o
 .ram           0x00000000       0x18 ./gecko_sdk_4.4.6/platform/emlib/src/em_emu.o
 .text.vmonCalibratedThreshold
                0x00000000       0xa0 ./gecko_sdk_4.4.6/platform/emlib/src/em_emu.o
 .text.vScaleDownEM23Setup
                0x00000000       0x30 ./gecko_sdk_4.4.6/platform/emlib/src/em_emu.o
 .text.vScaleAfterWakeup
                0x00000000       0x2c ./gecko_sdk_4.4.6/platform/emlib/src/em_emu.o
 .text.emState.part.0
                0x00000000       0xdc ./gecko_sdk_4.4.6/platform/emlib/src/em_emu.o
 .text.emState.constprop.0
                0x00000000       0x48 ./gecko_sdk_4.4.6/platform/emlib/src/em_emu.o
 .text.EMU_EM23Init
                0x00000000       0x34 ./gecko_sdk_4.4.6/platform/emlib/src/em_emu.o
 .text.EMU_EM23PresleepHook
                0x00000000        0x2 ./gecko_sdk_4.4.6/platform/emlib/src/em_emu.o
 .text.EMU_EFPEM23PresleepHook
                0x00000000        0x2 ./gecko_sdk_4.4.6/platform/emlib/src/em_emu.o
 .text.EMU_EM23PostsleepHook
                0x00000000        0x2 ./gecko_sdk_4.4.6/platform/emlib/src/em_emu.o
 .text.EMU_EFPEM23PostsleepHook
                0x00000000        0x2 ./gecko_sdk_4.4.6/platform/emlib/src/em_emu.o
 .text.EMU_EnterEM2
                0x00000000       0x88 ./gecko_sdk_4.4.6/platform/emlib/src/em_emu.o
 .text.EMU_EnterEM3
                0x00000000       0xa0 ./gecko_sdk_4.4.6/platform/emlib/src/em_emu.o
 .text.EMU_Save
                0x00000000        0x4 ./gecko_sdk_4.4.6/platform/emlib/src/em_emu.o
 .text.EMU_Restore
                0x00000000        0x4 ./gecko_sdk_4.4.6/platform/emlib/src/em_emu.o
 .text.EMU_EM4PresleepHook
                0x00000000        0x2 ./gecko_sdk_4.4.6/platform/emlib/src/em_emu.o
 .text.EMU_EFPEM4PresleepHook
                0x00000000        0x2 ./gecko_sdk_4.4.6/platform/emlib/src/em_emu.o
 .text.EMU_EnterEM4
                0x00000000       0x4c ./gecko_sdk_4.4.6/platform/emlib/src/em_emu.o
 .text.EMU_EnterEM4Wait
                0x00000000       0x14 ./gecko_sdk_4.4.6/platform/emlib/src/em_emu.o
 .text.EMU_EnterEM4H
                0x00000000       0x10 ./gecko_sdk_4.4.6/platform/emlib/src/em_emu.o
 .text.EMU_EnterEM4S
                0x00000000       0x10 ./gecko_sdk_4.4.6/platform/emlib/src/em_emu.o
 .text.EMU_MemPwrDown
                0x00000000       0x10 ./gecko_sdk_4.4.6/platform/emlib/src/em_emu.o
 .text.EMU_RamPowerDown
                0x00000000       0xd4 ./gecko_sdk_4.4.6/platform/emlib/src/em_emu.o
 .text.EMU_RamPowerUp
                0x00000000       0x14 ./gecko_sdk_4.4.6/platform/emlib/src/em_emu.o
 .text.EMU_PeripheralRetention
                0x00000000       0x20 ./gecko_sdk_4.4.6/platform/emlib/src/em_emu.o
 .text.EMU_UpdateOscConfig
                0x00000000        0x4 ./gecko_sdk_4.4.6/platform/emlib/src/em_emu.o
 .text.EMU_EM01Init
                0x00000000       0x14 ./gecko_sdk_4.4.6/platform/emlib/src/em_emu.o
 .text.EMU_DCDCModeEM23Set
                0x00000000       0x2c ./gecko_sdk_4.4.6/platform/emlib/src/em_emu.o
 .text.EMU_DCDCPowerOff
                0x00000000       0x3c ./gecko_sdk_4.4.6/platform/emlib/src/em_emu.o
 .text.EMU_DCDCConductionModeSet
                0x00000000       0x80 ./gecko_sdk_4.4.6/platform/emlib/src/em_emu.o
 .text.EMU_VmonInit
                0x00000000       0xe4 ./gecko_sdk_4.4.6/platform/emlib/src/em_emu.o
 .text.EMU_VmonHystInit
                0x00000000       0xac ./gecko_sdk_4.4.6/platform/emlib/src/em_emu.o
 .text.EMU_VmonEnable
                0x00000000       0x20 ./gecko_sdk_4.4.6/platform/emlib/src/em_emu.o
 .text.EMU_VmonChannelStatusGet
                0x00000000       0x30 ./gecko_sdk_4.4.6/platform/emlib/src/em_emu.o
 .text.EMU_TemperatureGet
                0x00000000       0x64 ./gecko_sdk_4.4.6/platform/emlib/src/em_emu.o
 .bss.hfrcoCtrl.0
                0x00000000        0x4 ./gecko_sdk_4.4.6/platform/emlib/src/em_emu.o
 .bss.vScaleStatus.1
                0x00000000        0x1 ./gecko_sdk_4.4.6/platform/emlib/src/em_emu.o
 .bss.hfClock.2
                0x00000000        0x1 ./gecko_sdk_4.4.6/platform/emlib/src/em_emu.o
 .bss.cmuStatus.3
                0x00000000        0x4 ./gecko_sdk_4.4.6/platform/emlib/src/em_emu.o
 .text          0x00000000        0x0 ./gecko_sdk_4.4.6/platform/emlib/src/em_gpio.o
 .data          0x00000000        0x0 ./gecko_sdk_4.4.6/platform/emlib/src/em_gpio.o
 .bss           0x00000000        0x0 ./gecko_sdk_4.4.6/platform/emlib/src/em_gpio.o
 .rodata.BUS_RegBitWrite.str1.1
                0x00000000       0x29 ./gecko_sdk_4.4.6/platform/emlib/src/em_gpio.o
 .text.BUS_RegBitWrite
                0x00000000       0x2c ./gecko_sdk_4.4.6/platform/emlib/src/em_gpio.o
 .text.GPIO_DriveStrengthSet
                0x00000000       0x44 ./gecko_sdk_4.4.6/platform/emlib/src/em_gpio.o
 .text.GPIO_ExtIntConfig
                0x00000000       0xd8 ./gecko_sdk_4.4.6/platform/emlib/src/em_gpio.o
 .text.GPIO_PinModeGet
                0x00000000       0x48 ./gecko_sdk_4.4.6/platform/emlib/src/em_gpio.o
 .text.GPIO_EM4EnablePinWakeup
                0x00000000       0x78 ./gecko_sdk_4.4.6/platform/emlib/src/em_gpio.o
 .text.GPIO_EM4WUExtIntConfig
                0x00000000       0x60 ./gecko_sdk_4.4.6/platform/emlib/src/em_gpio.o
 .text          0x00000000        0x0 ./gecko_sdk_4.4.6/platform/emlib/src/em_msc.o
 .data          0x00000000        0x0 ./gecko_sdk_4.4.6/platform/emlib/src/em_msc.o
 .bss           0x00000000        0x0 ./gecko_sdk_4.4.6/platform/emlib/src/em_msc.o
 .ram           0x00000000       0x4c ./gecko_sdk_4.4.6/platform/emlib/src/em_msc.o
 .rodata.MSC_Init.str1.1
                0x00000000       0x29 ./gecko_sdk_4.4.6/platform/emlib/src/em_msc.o
 .text.MSC_Init
                0x00000000       0x44 ./gecko_sdk_4.4.6/platform/emlib/src/em_msc.o
 .text.MSC_Deinit
                0x00000000       0x14 ./gecko_sdk_4.4.6/platform/emlib/src/em_msc.o
 .text.MSC_ExecConfigSet
                0x00000000       0x3c ./gecko_sdk_4.4.6/platform/emlib/src/em_msc.o
 .text.MSC_LoadVerifyAddress
                0x00000000       0x30 ./gecko_sdk_4.4.6/platform/emlib/src/em_msc.o
 .text.MSC_LoadWriteData
                0x00000000       0x70 ./gecko_sdk_4.4.6/platform/emlib/src/em_msc.o
 .text.MSC_WriteWordI
                0x00000000       0xd0 ./gecko_sdk_4.4.6/platform/emlib/src/em_msc.o
 .text.MSC_ErasePage
                0x00000000       0xd4 ./gecko_sdk_4.4.6/platform/emlib/src/em_msc.o
 .text.MSC_WriteWord
                0x00000000        0x4 ./gecko_sdk_4.4.6/platform/emlib/src/em_msc.o
 .text.MSC_WriteWordFast
                0x00000000        0x4 ./gecko_sdk_4.4.6/platform/emlib/src/em_msc.o
 .text.MSC_WriteWordDma
                0x00000000      0x108 ./gecko_sdk_4.4.6/platform/emlib/src/em_msc.o
 .debug_info    0x00000000      0xfb4 ./gecko_sdk_4.4.6/platform/emlib/src/em_msc.o
 .debug_abbrev  0x00000000      0x2c0 ./gecko_sdk_4.4.6/platform/emlib/src/em_msc.o
 .debug_loc     0x00000000      0x8a5 ./gecko_sdk_4.4.6/platform/emlib/src/em_msc.o
 .debug_aranges
                0x00000000       0x70 ./gecko_sdk_4.4.6/platform/emlib/src/em_msc.o
 .debug_ranges  0x00000000       0xc0 ./gecko_sdk_4.4.6/platform/emlib/src/em_msc.o
 .debug_line    0x00000000      0x91a ./gecko_sdk_4.4.6/platform/emlib/src/em_msc.o
 .debug_str     0x00000000      0x6e8 ./gecko_sdk_4.4.6/platform/emlib/src/em_msc.o
 .comment       0x00000000       0x46 ./gecko_sdk_4.4.6/platform/emlib/src/em_msc.o
 .debug_frame   0x00000000      0x114 ./gecko_sdk_4.4.6/platform/emlib/src/em_msc.o
 .ARM.attributes
                0x00000000       0x32 ./gecko_sdk_4.4.6/platform/emlib/src/em_msc.o
 .text          0x00000000        0x0 ./gecko_sdk_4.4.6/platform/emlib/src/em_rtcc.o
 .data          0x00000000        0x0 ./gecko_sdk_4.4.6/platform/emlib/src/em_rtcc.o
 .bss           0x00000000        0x0 ./gecko_sdk_4.4.6/platform/emlib/src/em_rtcc.o
 .text.RTCC_StatusClear
                0x00000000       0x14 ./gecko_sdk_4.4.6/platform/emlib/src/em_rtcc.o
 .text.RTCC_Reset
                0x00000000       0x80 ./gecko_sdk_4.4.6/platform/emlib/src/em_rtcc.o
 .text          0x00000000        0x0 ./gecko_sdk_4.4.6/platform/emlib/src/em_system.o
 .data          0x00000000        0x0 ./gecko_sdk_4.4.6/platform/emlib/src/em_system.o
 .bss           0x00000000        0x0 ./gecko_sdk_4.4.6/platform/emlib/src/em_system.o
 .rodata.SYSTEM_ChipRevisionGet.str1.1
                0x00000000       0x2c ./gecko_sdk_4.4.6/platform/emlib/src/em_system.o
 .text.SYSTEM_ChipRevisionGet
                0x00000000       0x50 ./gecko_sdk_4.4.6/platform/emlib/src/em_system.o
 .text.SYSTEM_GetCalibrationValue
                0x00000000       0x30 ./gecko_sdk_4.4.6/platform/emlib/src/em_system.o
 .text.SYSTEM_GetSecurityCapability
                0x00000000        0x4 ./gecko_sdk_4.4.6/platform/emlib/src/em_system.o
 .text.SYSTEM_GetUnique
                0x00000000       0x10 ./gecko_sdk_4.4.6/platform/emlib/src/em_system.o
 .text.SYSTEM_GetSRAMBaseAddress
                0x00000000        0x6 ./gecko_sdk_4.4.6/platform/emlib/src/em_system.o
 .text.SYSTEM_GetSRAMSize
                0x00000000       0x10 ./gecko_sdk_4.4.6/platform/emlib/src/em_system.o
 .text.SYSTEM_GetFlashSize
                0x00000000       0x10 ./gecko_sdk_4.4.6/platform/emlib/src/em_system.o
 .text.SYSTEM_GetFlashPageSize
                0x00000000       0x18 ./gecko_sdk_4.4.6/platform/emlib/src/em_system.o
 .text.SYSTEM_GetPartNumber
                0x00000000       0x10 ./gecko_sdk_4.4.6/platform/emlib/src/em_system.o
 .text.SYSTEM_GetCalibrationTemperature
                0x00000000       0x10 ./gecko_sdk_4.4.6/platform/emlib/src/em_system.o
 .text.SYSTEM_GetFamily
                0x00000000       0x10 ./gecko_sdk_4.4.6/platform/emlib/src/em_system.o
 .text          0x00000000        0x0 ./gecko_sdk_4.4.6/platform/emlib/src/em_timer.o
 .data          0x00000000        0x0 ./gecko_sdk_4.4.6/platform/emlib/src/em_timer.o
 .bss           0x00000000        0x0 ./gecko_sdk_4.4.6/platform/emlib/src/em_timer.o
 .text.TIMER_Valid
                0x00000000       0x2c ./gecko_sdk_4.4.6/platform/emlib/src/em_timer.o
 .rodata.TIMER_Init.str1.1
                0x00000000       0x2b ./gecko_sdk_4.4.6/platform/emlib/src/em_timer.o
 .text.TIMER_Init
                0x00000000       0x78 ./gecko_sdk_4.4.6/platform/emlib/src/em_timer.o
 .text.TIMER_InitCC
                0x00000000       0x78 ./gecko_sdk_4.4.6/platform/emlib/src/em_timer.o
 .rodata.TIMER_InitDTI.str1.1
                0x00000000       0x2b ./gecko_sdk_4.4.6/platform/emlib/src/em_timer.o
 .text.TIMER_InitDTI
                0x00000000       0xfc ./gecko_sdk_4.4.6/platform/emlib/src/em_timer.o
 .text.TIMER_Reset
                0x00000000       0x64 ./gecko_sdk_4.4.6/platform/emlib/src/em_timer.o
 .debug_info    0x00000000      0xca9 ./gecko_sdk_4.4.6/platform/emlib/src/em_timer.o
 .debug_abbrev  0x00000000      0x27a ./gecko_sdk_4.4.6/platform/emlib/src/em_timer.o
 .debug_loc     0x00000000      0x480 ./gecko_sdk_4.4.6/platform/emlib/src/em_timer.o
 .debug_aranges
                0x00000000       0x40 ./gecko_sdk_4.4.6/platform/emlib/src/em_timer.o
 .debug_ranges  0x00000000       0xe0 ./gecko_sdk_4.4.6/platform/emlib/src/em_timer.o
 .debug_line    0x00000000      0x63e ./gecko_sdk_4.4.6/platform/emlib/src/em_timer.o
 .debug_str     0x00000000      0x986 ./gecko_sdk_4.4.6/platform/emlib/src/em_timer.o
 .comment       0x00000000       0x46 ./gecko_sdk_4.4.6/platform/emlib/src/em_timer.o
 .debug_frame   0x00000000       0x8c ./gecko_sdk_4.4.6/platform/emlib/src/em_timer.o
 .ARM.attributes
                0x00000000       0x32 ./gecko_sdk_4.4.6/platform/emlib/src/em_timer.o
 .text          0x00000000        0x0 ./gecko_sdk_4.4.6/platform/emlib/src/em_usart.o
 .data          0x00000000        0x0 ./gecko_sdk_4.4.6/platform/emlib/src/em_usart.o
 .bss           0x00000000        0x0 ./gecko_sdk_4.4.6/platform/emlib/src/em_usart.o
 .text.USART_BaudrateCalc
                0x00000000       0x7c ./gecko_sdk_4.4.6/platform/emlib/src/em_usart.o
 .text.USART_BaudrateGet
                0x00000000       0x24 ./gecko_sdk_4.4.6/platform/emlib/src/em_usart.o
 .text.USART_Enable
                0x00000000       0x44 ./gecko_sdk_4.4.6/platform/emlib/src/em_usart.o
 .text.USART_InitPrsTrigger
                0x00000000       0x30 ./gecko_sdk_4.4.6/platform/emlib/src/em_usart.o
 .text.USARTn_InitIrDA
                0x00000000       0x7c ./gecko_sdk_4.4.6/platform/emlib/src/em_usart.o
 .text.USART_InitI2s
                0x00000000       0x68 ./gecko_sdk_4.4.6/platform/emlib/src/em_usart.o
 .text.USART_Rx
                0x00000000        0xc ./gecko_sdk_4.4.6/platform/emlib/src/em_usart.o
 .text.USART_RxDouble
                0x00000000        0xc ./gecko_sdk_4.4.6/platform/emlib/src/em_usart.o
 .text.USART_RxDoubleExt
                0x00000000        0xa ./gecko_sdk_4.4.6/platform/emlib/src/em_usart.o
 .text.USART_RxExt
                0x00000000        0xc ./gecko_sdk_4.4.6/platform/emlib/src/em_usart.o
 .text.USART_Tx
                0x00000000        0xa ./gecko_sdk_4.4.6/platform/emlib/src/em_usart.o
 .text.USART_TxDouble
                0x00000000        0xa ./gecko_sdk_4.4.6/platform/emlib/src/em_usart.o
 .text.USART_TxDoubleExt
                0x00000000        0xa ./gecko_sdk_4.4.6/platform/emlib/src/em_usart.o
 .text.USART_TxExt
                0x00000000        0xa ./gecko_sdk_4.4.6/platform/emlib/src/em_usart.o
 .text          0x00000000        0x0 ./gecko_sdk_4.4.6/platform/service/device_init/src/sl_device_init_dcdc_s1.o
 .data          0x00000000        0x0 ./gecko_sdk_4.4.6/platform/service/device_init/src/sl_device_init_dcdc_s1.o
 .bss           0x00000000        0x0 ./gecko_sdk_4.4.6/platform/service/device_init/src/sl_device_init_dcdc_s1.o
 .text          0x00000000        0x0 ./gecko_sdk_4.4.6/platform/service/device_init/src/sl_device_init_emu_s1.o
 .data          0x00000000        0x0 ./gecko_sdk_4.4.6/platform/service/device_init/src/sl_device_init_emu_s1.o
 .bss           0x00000000        0x0 ./gecko_sdk_4.4.6/platform/service/device_init/src/sl_device_init_emu_s1.o
 .text          0x00000000        0x0 ./gecko_sdk_4.4.6/platform/service/device_init/src/sl_device_init_hfxo_s1.o
 .data          0x00000000        0x0 ./gecko_sdk_4.4.6/platform/service/device_init/src/sl_device_init_hfxo_s1.o
 .bss           0x00000000        0x0 ./gecko_sdk_4.4.6/platform/service/device_init/src/sl_device_init_hfxo_s1.o
 .text          0x00000000        0x0 ./gecko_sdk_4.4.6/platform/service/device_init/src/sl_device_init_lfxo_s1.o
 .data          0x00000000        0x0 ./gecko_sdk_4.4.6/platform/service/device_init/src/sl_device_init_lfxo_s1.o
 .bss           0x00000000        0x0 ./gecko_sdk_4.4.6/platform/service/device_init/src/sl_device_init_lfxo_s1.o
 .text          0x00000000        0x0 ./gecko_sdk_4.4.6/platform/service/device_init/src/sl_device_init_nvic.o
 .data          0x00000000        0x0 ./gecko_sdk_4.4.6/platform/service/device_init/src/sl_device_init_nvic.o
 .bss           0x00000000        0x0 ./gecko_sdk_4.4.6/platform/service/device_init/src/sl_device_init_nvic.o
 .text          0x00000000        0x0 ./gecko_sdk_4.4.6/platform/service/sleeptimer/src/sl_sleeptimer.o
 .data          0x00000000        0x0 ./gecko_sdk_4.4.6/platform/service/sleeptimer/src/sl_sleeptimer.o
 .bss           0x00000000        0x0 ./gecko_sdk_4.4.6/platform/service/sleeptimer/src/sl_sleeptimer.o
 .text.delay_callback
                0x00000000        0x6 ./gecko_sdk_4.4.6/platform/service/sleeptimer/src/sl_sleeptimer.o
 .text.create_timer
                0x00000000       0x88 ./gecko_sdk_4.4.6/platform/service/sleeptimer/src/sl_sleeptimer.o
 .text.sl_sleeptimer_stop_timer
                0x00000000       0x60 ./gecko_sdk_4.4.6/platform/service/sleeptimer/src/sl_sleeptimer.o
 .text.sl_sleeptimer_restart_timer
                0x00000000       0x3e ./gecko_sdk_4.4.6/platform/service/sleeptimer/src/sl_sleeptimer.o
 .text.sl_sleeptimer_restart_periodic_timer
                0x00000000       0x38 ./gecko_sdk_4.4.6/platform/service/sleeptimer/src/sl_sleeptimer.o
 .text.sl_sleeptimer_is_timer_running
                0x00000000       0x3c ./gecko_sdk_4.4.6/platform/service/sleeptimer/src/sl_sleeptimer.o
 .text.sl_sleeptimer_start_timer
                0x00000000       0x48 ./gecko_sdk_4.4.6/platform/service/sleeptimer/src/sl_sleeptimer.o
 .text.sl_sleeptimer_start_periodic_timer
                0x00000000       0x4a ./gecko_sdk_4.4.6/platform/service/sleeptimer/src/sl_sleeptimer.o
 .text.sl_sleeptimer_get_timer_time_remaining
                0x00000000       0x70 ./gecko_sdk_4.4.6/platform/service/sleeptimer/src/sl_sleeptimer.o
 .text.sl_sleeptimer_get_remaining_time_of_first_timer
                0x00000000       0x60 ./gecko_sdk_4.4.6/platform/service/sleeptimer/src/sl_sleeptimer.o
 .text.sl_sleeptimer_get_tick_count
                0x00000000       0x18 ./gecko_sdk_4.4.6/platform/service/sleeptimer/src/sl_sleeptimer.o
 .text.sli_sleeptimer_is_power_manager_timer_next_to_expire
                0x00000000       0x28 ./gecko_sdk_4.4.6/platform/service/sleeptimer/src/sl_sleeptimer.o
 .text.sl_sleeptimer_get_tick_count64
                0x00000000       0x34 ./gecko_sdk_4.4.6/platform/service/sleeptimer/src/sl_sleeptimer.o
 .text.sl_sleeptimer_get_timer_frequency
                0x00000000        0xc ./gecko_sdk_4.4.6/platform/service/sleeptimer/src/sl_sleeptimer.o
 .text.sl_sleeptimer_ms_to_tick
                0x00000000       0x24 ./gecko_sdk_4.4.6/platform/service/sleeptimer/src/sl_sleeptimer.o
 .text.sl_sleeptimer_delay_millisecond
                0x00000000       0x38 ./gecko_sdk_4.4.6/platform/service/sleeptimer/src/sl_sleeptimer.o
 .text.sl_sleeptimer_ms32_to_tick
                0x00000000       0x3c ./gecko_sdk_4.4.6/platform/service/sleeptimer/src/sl_sleeptimer.o
 .text.sl_sleeptimer_start_periodic_timer_ms
                0x00000000       0x84 ./gecko_sdk_4.4.6/platform/service/sleeptimer/src/sl_sleeptimer.o
 .text.sl_sleeptimer_restart_periodic_timer_ms
                0x00000000       0x64 ./gecko_sdk_4.4.6/platform/service/sleeptimer/src/sl_sleeptimer.o
 .text.sl_sleeptimer_get_max_ms32_conversion
                0x00000000        0xc ./gecko_sdk_4.4.6/platform/service/sleeptimer/src/sl_sleeptimer.o
 .text.sl_sleeptimer_tick_to_ms
                0x00000000       0x44 ./gecko_sdk_4.4.6/platform/service/sleeptimer/src/sl_sleeptimer.o
 .text.sl_sleeptimer_tick64_to_ms
                0x00000000       0x64 ./gecko_sdk_4.4.6/platform/service/sleeptimer/src/sl_sleeptimer.o
 .text.sl_sleeptimer_is_power_manager_early_restore_timer_latest_to_expire
                0x00000000       0x18 ./gecko_sdk_4.4.6/platform/service/sleeptimer/src/sl_sleeptimer.o
 .text.sl_sleeptimer_get_clock_accuracy
                0x00000000        0x4 ./gecko_sdk_4.4.6/platform/service/sleeptimer/src/sl_sleeptimer.o
 .text.sli_sleeptimer_update_sleep_on_isr_exit
                0x00000000        0xc ./gecko_sdk_4.4.6/platform/service/sleeptimer/src/sl_sleeptimer.o
 .text.sli_sleeptimer_get_capture
                0x00000000        0x4 ./gecko_sdk_4.4.6/platform/service/sleeptimer/src/sl_sleeptimer.o
 .text.sli_sleeptimer_reset_prs_signal
                0x00000000        0x4 ./gecko_sdk_4.4.6/platform/service/sleeptimer/src/sl_sleeptimer.o
 .text          0x00000000        0x0 ./gecko_sdk_4.4.6/platform/service/sleeptimer/src/sl_sleeptimer_hal_rtcc.o
 .data          0x00000000        0x0 ./gecko_sdk_4.4.6/platform/service/sleeptimer/src/sl_sleeptimer_hal_rtcc.o
 .bss           0x00000000        0x0 ./gecko_sdk_4.4.6/platform/service/sleeptimer/src/sl_sleeptimer_hal_rtcc.o
 .text.sleeptimer_hal_get_compare
                0x00000000        0xc ./gecko_sdk_4.4.6/platform/service/sleeptimer/src/sl_sleeptimer_hal_rtcc.o
 .text.sli_sleeptimer_hal_is_int_status_set
                0x00000000       0x20 ./gecko_sdk_4.4.6/platform/service/sleeptimer/src/sl_sleeptimer_hal_rtcc.o
 .text.sleeptimer_hal_get_clock_accuracy
                0x00000000        0xc ./gecko_sdk_4.4.6/platform/service/sleeptimer/src/sl_sleeptimer_hal_rtcc.o
 .rodata.sleeptimer_hal_get_capture.str1.1
                0x00000000       0x46 ./gecko_sdk_4.4.6/platform/service/sleeptimer/src/sl_sleeptimer_hal_rtcc.o
 .text.sleeptimer_hal_get_capture
                0x00000000       0x14 ./gecko_sdk_4.4.6/platform/service/sleeptimer/src/sl_sleeptimer_hal_rtcc.o
 .text.sleeptimer_hal_reset_prs_signal
                0x00000000       0x10 ./gecko_sdk_4.4.6/platform/service/sleeptimer/src/sl_sleeptimer_hal_rtcc.o
 .text          0x00000000        0x0 ./gecko_sdk_4.4.6/platform/service/sleeptimer/src/sl_sleeptimer_hal_timer.o
 .data          0x00000000        0x0 ./gecko_sdk_4.4.6/platform/service/sleeptimer/src/sl_sleeptimer_hal_timer.o
 .bss           0x00000000        0x0 ./gecko_sdk_4.4.6/platform/service/sleeptimer/src/sl_sleeptimer_hal_timer.o
 .debug_info    0x00000000       0x6b ./gecko_sdk_4.4.6/platform/service/sleeptimer/src/sl_sleeptimer_hal_timer.o
 .debug_abbrev  0x00000000       0x26 ./gecko_sdk_4.4.6/platform/service/sleeptimer/src/sl_sleeptimer_hal_timer.o
 .debug_aranges
                0x00000000       0x18 ./gecko_sdk_4.4.6/platform/service/sleeptimer/src/sl_sleeptimer_hal_timer.o
 .debug_line    0x00000000       0x67 ./gecko_sdk_4.4.6/platform/service/sleeptimer/src/sl_sleeptimer_hal_timer.o
 .debug_str     0x00000000      0x1e5 ./gecko_sdk_4.4.6/platform/service/sleeptimer/src/sl_sleeptimer_hal_timer.o
 .comment       0x00000000       0x46 ./gecko_sdk_4.4.6/platform/service/sleeptimer/src/sl_sleeptimer_hal_timer.o
 .ARM.attributes
                0x00000000       0x32 ./gecko_sdk_4.4.6/platform/service/sleeptimer/src/sl_sleeptimer_hal_timer.o
 .text          0x00000000        0x0 ./gecko_sdk_4.4.6/platform/service/system/src/sl_system_init.o
 .data          0x00000000        0x0 ./gecko_sdk_4.4.6/platform/service/system/src/sl_system_init.o
 .bss           0x00000000        0x0 ./gecko_sdk_4.4.6/platform/service/system/src/sl_system_init.o
 .text          0x00000000        0x0 ./gecko_sdk_4.4.6/platform/service/system/src/sl_system_process_action.o
 .data          0x00000000        0x0 ./gecko_sdk_4.4.6/platform/service/system/src/sl_system_process_action.o
 .bss           0x00000000        0x0 ./gecko_sdk_4.4.6/platform/service/system/src/sl_system_process_action.o
 .text          0x00000000        0x0 ./gecko_sdk_4.4.6/platform/service/udelay/src/sl_udelay.o
 .data          0x00000000        0x0 ./gecko_sdk_4.4.6/platform/service/udelay/src/sl_udelay.o
 .bss           0x00000000        0x0 ./gecko_sdk_4.4.6/platform/service/udelay/src/sl_udelay.o
 .data          0x00000000        0x0 ./gecko_sdk_4.4.6/platform/service/udelay/src/sl_udelay_armv6m_gcc.o
 .bss           0x00000000        0x0 ./gecko_sdk_4.4.6/platform/service/udelay/src/sl_udelay_armv6m_gcc.o
 .text          0x00000000      0x254 d:/simplicitystudio-5/developer/toolchains/gnu_arm/12.2.rel1_2023.7/bin/../lib/gcc/arm-none-eabi/12.2.1/thumb/v7e-m+fp/softfp\libgcc.a(_arm_muldf3.o)
 .data          0x00000000        0x0 d:/simplicitystudio-5/developer/toolchains/gnu_arm/12.2.rel1_2023.7/bin/../lib/gcc/arm-none-eabi/12.2.1/thumb/v7e-m+fp/softfp\libgcc.a(_arm_muldf3.o)
 .bss           0x00000000        0x0 d:/simplicitystudio-5/developer/toolchains/gnu_arm/12.2.rel1_2023.7/bin/../lib/gcc/arm-none-eabi/12.2.1/thumb/v7e-m+fp/softfp\libgcc.a(_arm_muldf3.o)
 .debug_line_str
                0x00000000       0xd0 d:/simplicitystudio-5/developer/toolchains/gnu_arm/12.2.rel1_2023.7/bin/../lib/gcc/arm-none-eabi/12.2.1/thumb/v7e-m+fp/softfp\libgcc.a(_arm_muldf3.o)
 .debug_frame   0x00000000       0x30 d:/simplicitystudio-5/developer/toolchains/gnu_arm/12.2.rel1_2023.7/bin/../lib/gcc/arm-none-eabi/12.2.1/thumb/v7e-m+fp/softfp\libgcc.a(_arm_muldf3.o)
 .ARM.attributes
                0x00000000       0x22 d:/simplicitystudio-5/developer/toolchains/gnu_arm/12.2.rel1_2023.7/bin/../lib/gcc/arm-none-eabi/12.2.1/thumb/v7e-m+fp/softfp\libgcc.a(_arm_muldf3.o)
 .data          0x00000000        0x0 d:/simplicitystudio-5/developer/toolchains/gnu_arm/12.2.rel1_2023.7/bin/../lib/gcc/arm-none-eabi/12.2.1/thumb/v7e-m+fp/softfp\libgcc.a(_arm_addsubdf3.o)
 .bss           0x00000000        0x0 d:/simplicitystudio-5/developer/toolchains/gnu_arm/12.2.rel1_2023.7/bin/../lib/gcc/arm-none-eabi/12.2.1/thumb/v7e-m+fp/softfp\libgcc.a(_arm_addsubdf3.o)
 .data          0x00000000        0x0 d:/simplicitystudio-5/developer/toolchains/gnu_arm/12.2.rel1_2023.7/bin/../lib/gcc/arm-none-eabi/12.2.1/thumb/v7e-m+fp/softfp\libgcc.a(_arm_truncdfsf2.o)
 .bss           0x00000000        0x0 d:/simplicitystudio-5/developer/toolchains/gnu_arm/12.2.rel1_2023.7/bin/../lib/gcc/arm-none-eabi/12.2.1/thumb/v7e-m+fp/softfp\libgcc.a(_arm_truncdfsf2.o)
 .text          0x00000000       0xa0 d:/simplicitystudio-5/developer/toolchains/gnu_arm/12.2.rel1_2023.7/bin/../lib/gcc/arm-none-eabi/12.2.1/thumb/v7e-m+fp/softfp\libgcc.a(_aeabi_ldivmod.o)
 .data          0x00000000        0x0 d:/simplicitystudio-5/developer/toolchains/gnu_arm/12.2.rel1_2023.7/bin/../lib/gcc/arm-none-eabi/12.2.1/thumb/v7e-m+fp/softfp\libgcc.a(_aeabi_ldivmod.o)
 .bss           0x00000000        0x0 d:/simplicitystudio-5/developer/toolchains/gnu_arm/12.2.rel1_2023.7/bin/../lib/gcc/arm-none-eabi/12.2.1/thumb/v7e-m+fp/softfp\libgcc.a(_aeabi_ldivmod.o)
 .debug_line_str
                0x00000000       0xcb d:/simplicitystudio-5/developer/toolchains/gnu_arm/12.2.rel1_2023.7/bin/../lib/gcc/arm-none-eabi/12.2.1/thumb/v7e-m+fp/softfp\libgcc.a(_aeabi_ldivmod.o)
 .debug_frame   0x00000000       0x44 d:/simplicitystudio-5/developer/toolchains/gnu_arm/12.2.rel1_2023.7/bin/../lib/gcc/arm-none-eabi/12.2.1/thumb/v7e-m+fp/softfp\libgcc.a(_aeabi_ldivmod.o)
 .ARM.attributes
                0x00000000       0x22 d:/simplicitystudio-5/developer/toolchains/gnu_arm/12.2.rel1_2023.7/bin/../lib/gcc/arm-none-eabi/12.2.1/thumb/v7e-m+fp/softfp\libgcc.a(_aeabi_ldivmod.o)
 .data          0x00000000        0x0 d:/simplicitystudio-5/developer/toolchains/gnu_arm/12.2.rel1_2023.7/bin/../lib/gcc/arm-none-eabi/12.2.1/thumb/v7e-m+fp/softfp\libgcc.a(_aeabi_uldivmod.o)
 .bss           0x00000000        0x0 d:/simplicitystudio-5/developer/toolchains/gnu_arm/12.2.rel1_2023.7/bin/../lib/gcc/arm-none-eabi/12.2.1/thumb/v7e-m+fp/softfp\libgcc.a(_aeabi_uldivmod.o)
 .text          0x00000000        0x0 d:/simplicitystudio-5/developer/toolchains/gnu_arm/12.2.rel1_2023.7/bin/../lib/gcc/arm-none-eabi/12.2.1/thumb/v7e-m+fp/softfp\libgcc.a(_udivmoddi4.o)
 .data          0x00000000        0x0 d:/simplicitystudio-5/developer/toolchains/gnu_arm/12.2.rel1_2023.7/bin/../lib/gcc/arm-none-eabi/12.2.1/thumb/v7e-m+fp/softfp\libgcc.a(_udivmoddi4.o)
 .bss           0x00000000        0x0 d:/simplicitystudio-5/developer/toolchains/gnu_arm/12.2.rel1_2023.7/bin/../lib/gcc/arm-none-eabi/12.2.1/thumb/v7e-m+fp/softfp\libgcc.a(_udivmoddi4.o)
 .ARM.extab.text.__udivmoddi4
                0x00000000        0x0 d:/simplicitystudio-5/developer/toolchains/gnu_arm/12.2.rel1_2023.7/bin/../lib/gcc/arm-none-eabi/12.2.1/thumb/v7e-m+fp/softfp\libgcc.a(_udivmoddi4.o)
 .text          0x00000000        0x0 d:/simplicitystudio-5/developer/toolchains/gnu_arm/12.2.rel1_2023.7/bin/../lib/gcc/arm-none-eabi/12.2.1/thumb/v7e-m+fp/softfp\libgcc.a(emutls.o)
 .data          0x00000000        0x0 d:/simplicitystudio-5/developer/toolchains/gnu_arm/12.2.rel1_2023.7/bin/../lib/gcc/arm-none-eabi/12.2.1/thumb/v7e-m+fp/softfp\libgcc.a(emutls.o)
 .bss           0x00000000        0x0 d:/simplicitystudio-5/developer/toolchains/gnu_arm/12.2.rel1_2023.7/bin/../lib/gcc/arm-none-eabi/12.2.1/thumb/v7e-m+fp/softfp\libgcc.a(emutls.o)
 .ARM.extab.text.__gthread_active_p
                0x00000000        0x0 d:/simplicitystudio-5/developer/toolchains/gnu_arm/12.2.rel1_2023.7/bin/../lib/gcc/arm-none-eabi/12.2.1/thumb/v7e-m+fp/softfp\libgcc.a(emutls.o)
 .ARM.extab.text.emutls_alloc
                0x00000000        0x0 d:/simplicitystudio-5/developer/toolchains/gnu_arm/12.2.rel1_2023.7/bin/../lib/gcc/arm-none-eabi/12.2.1/thumb/v7e-m+fp/softfp\libgcc.a(emutls.o)
 .ARM.extab.text.__emutls_get_address
                0x00000000        0x0 d:/simplicitystudio-5/developer/toolchains/gnu_arm/12.2.rel1_2023.7/bin/../lib/gcc/arm-none-eabi/12.2.1/thumb/v7e-m+fp/softfp\libgcc.a(emutls.o)
 .text.__emutls_register_common
                0x00000000       0x28 d:/simplicitystudio-5/developer/toolchains/gnu_arm/12.2.rel1_2023.7/bin/../lib/gcc/arm-none-eabi/12.2.1/thumb/v7e-m+fp/softfp\libgcc.a(emutls.o)
 .ARM.extab.text.__emutls_register_common
                0x00000000        0x0 d:/simplicitystudio-5/developer/toolchains/gnu_arm/12.2.rel1_2023.7/bin/../lib/gcc/arm-none-eabi/12.2.1/thumb/v7e-m+fp/softfp\libgcc.a(emutls.o)
 .ARM.exidx.text.__emutls_register_common
                0x00000000        0x8 d:/simplicitystudio-5/developer/toolchains/gnu_arm/12.2.rel1_2023.7/bin/../lib/gcc/arm-none-eabi/12.2.1/thumb/v7e-m+fp/softfp\libgcc.a(emutls.o)
 .data          0x00000000        0x0 d:/simplicitystudio-5/developer/toolchains/gnu_arm/12.2.rel1_2023.7/bin/../lib/gcc/arm-none-eabi/12.2.1/thumb/v7e-m+fp/softfp\libgcc.a(_dvmd_tls.o)
 .bss           0x00000000        0x0 d:/simplicitystudio-5/developer/toolchains/gnu_arm/12.2.rel1_2023.7/bin/../lib/gcc/arm-none-eabi/12.2.1/thumb/v7e-m+fp/softfp\libgcc.a(_dvmd_tls.o)
 .text          0x00000000        0x0 d:/simplicitystudio-5/developer/toolchains/gnu_arm/12.2.rel1_2023.7/bin/../lib/gcc/arm-none-eabi/12.2.1/thumb/v7e-m+fp/softfp\libc_nano.a(libc_a-abs.o)
 .data          0x00000000        0x0 d:/simplicitystudio-5/developer/toolchains/gnu_arm/12.2.rel1_2023.7/bin/../lib/gcc/arm-none-eabi/12.2.1/thumb/v7e-m+fp/softfp\libc_nano.a(libc_a-abs.o)
 .bss           0x00000000        0x0 d:/simplicitystudio-5/developer/toolchains/gnu_arm/12.2.rel1_2023.7/bin/../lib/gcc/arm-none-eabi/12.2.1/thumb/v7e-m+fp/softfp\libc_nano.a(libc_a-abs.o)
 .text          0x00000000        0x0 d:/simplicitystudio-5/developer/toolchains/gnu_arm/12.2.rel1_2023.7/bin/../lib/gcc/arm-none-eabi/12.2.1/thumb/v7e-m+fp/softfp\libc_nano.a(libc_a-assert.o)
 .data          0x00000000        0x0 d:/simplicitystudio-5/developer/toolchains/gnu_arm/12.2.rel1_2023.7/bin/../lib/gcc/arm-none-eabi/12.2.1/thumb/v7e-m+fp/softfp\libc_nano.a(libc_a-assert.o)
 .bss           0x00000000        0x0 d:/simplicitystudio-5/developer/toolchains/gnu_arm/12.2.rel1_2023.7/bin/../lib/gcc/arm-none-eabi/12.2.1/thumb/v7e-m+fp/softfp\libc_nano.a(libc_a-assert.o)
 .text.__assert
                0x00000000        0xa d:/simplicitystudio-5/developer/toolchains/gnu_arm/12.2.rel1_2023.7/bin/../lib/gcc/arm-none-eabi/12.2.1/thumb/v7e-m+fp/softfp\libc_nano.a(libc_a-assert.o)
 .text          0x00000000        0x0 d:/simplicitystudio-5/developer/toolchains/gnu_arm/12.2.rel1_2023.7/bin/../lib/gcc/arm-none-eabi/12.2.1/thumb/v7e-m+fp/softfp\libc_nano.a(libc_a-exit.o)
 .data          0x00000000        0x0 d:/simplicitystudio-5/developer/toolchains/gnu_arm/12.2.rel1_2023.7/bin/../lib/gcc/arm-none-eabi/12.2.1/thumb/v7e-m+fp/softfp\libc_nano.a(libc_a-exit.o)
 .bss           0x00000000        0x0 d:/simplicitystudio-5/developer/toolchains/gnu_arm/12.2.rel1_2023.7/bin/../lib/gcc/arm-none-eabi/12.2.1/thumb/v7e-m+fp/softfp\libc_nano.a(libc_a-exit.o)
 .text          0x00000000        0x0 d:/simplicitystudio-5/developer/toolchains/gnu_arm/12.2.rel1_2023.7/bin/../lib/gcc/arm-none-eabi/12.2.1/thumb/v7e-m+fp/softfp\libc_nano.a(libc_a-malloc.o)
 .data          0x00000000        0x0 d:/simplicitystudio-5/developer/toolchains/gnu_arm/12.2.rel1_2023.7/bin/../lib/gcc/arm-none-eabi/12.2.1/thumb/v7e-m+fp/softfp\libc_nano.a(libc_a-malloc.o)
 .bss           0x00000000        0x0 d:/simplicitystudio-5/developer/toolchains/gnu_arm/12.2.rel1_2023.7/bin/../lib/gcc/arm-none-eabi/12.2.1/thumb/v7e-m+fp/softfp\libc_nano.a(libc_a-malloc.o)
 .text          0x00000000        0x0 d:/simplicitystudio-5/developer/toolchains/gnu_arm/12.2.rel1_2023.7/bin/../lib/gcc/arm-none-eabi/12.2.1/thumb/v7e-m+fp/softfp\libc_nano.a(libc_a-mallocr.o)
 .data          0x00000000        0x0 d:/simplicitystudio-5/developer/toolchains/gnu_arm/12.2.rel1_2023.7/bin/../lib/gcc/arm-none-eabi/12.2.1/thumb/v7e-m+fp/softfp\libc_nano.a(libc_a-mallocr.o)
 .bss           0x00000000        0x0 d:/simplicitystudio-5/developer/toolchains/gnu_arm/12.2.rel1_2023.7/bin/../lib/gcc/arm-none-eabi/12.2.1/thumb/v7e-m+fp/softfp\libc_nano.a(libc_a-mallocr.o)
 .text          0x00000000        0x0 d:/simplicitystudio-5/developer/toolchains/gnu_arm/12.2.rel1_2023.7/bin/../lib/gcc/arm-none-eabi/12.2.1/thumb/v7e-m+fp/softfp\libc_nano.a(libc_a-mlock.o)
 .data          0x00000000        0x0 d:/simplicitystudio-5/developer/toolchains/gnu_arm/12.2.rel1_2023.7/bin/../lib/gcc/arm-none-eabi/12.2.1/thumb/v7e-m+fp/softfp\libc_nano.a(libc_a-mlock.o)
 .bss           0x00000000        0x0 d:/simplicitystudio-5/developer/toolchains/gnu_arm/12.2.rel1_2023.7/bin/../lib/gcc/arm-none-eabi/12.2.1/thumb/v7e-m+fp/softfp\libc_nano.a(libc_a-mlock.o)
 .text          0x00000000        0x0 d:/simplicitystudio-5/developer/toolchains/gnu_arm/12.2.rel1_2023.7/bin/../lib/gcc/arm-none-eabi/12.2.1/thumb/v7e-m+fp/softfp\libc_nano.a(libc_a-realloc.o)
 .data          0x00000000        0x0 d:/simplicitystudio-5/developer/toolchains/gnu_arm/12.2.rel1_2023.7/bin/../lib/gcc/arm-none-eabi/12.2.1/thumb/v7e-m+fp/softfp\libc_nano.a(libc_a-realloc.o)
 .bss           0x00000000        0x0 d:/simplicitystudio-5/developer/toolchains/gnu_arm/12.2.rel1_2023.7/bin/../lib/gcc/arm-none-eabi/12.2.1/thumb/v7e-m+fp/softfp\libc_nano.a(libc_a-realloc.o)
 .text          0x00000000        0x0 d:/simplicitystudio-5/developer/toolchains/gnu_arm/12.2.rel1_2023.7/bin/../lib/gcc/arm-none-eabi/12.2.1/thumb/v7e-m+fp/softfp\libc_nano.a(libc_a-reallocr.o)
 .data          0x00000000        0x0 d:/simplicitystudio-5/developer/toolchains/gnu_arm/12.2.rel1_2023.7/bin/../lib/gcc/arm-none-eabi/12.2.1/thumb/v7e-m+fp/softfp\libc_nano.a(libc_a-reallocr.o)
 .bss           0x00000000        0x0 d:/simplicitystudio-5/developer/toolchains/gnu_arm/12.2.rel1_2023.7/bin/../lib/gcc/arm-none-eabi/12.2.1/thumb/v7e-m+fp/softfp\libc_nano.a(libc_a-reallocr.o)
 .text          0x00000000        0x0 d:/simplicitystudio-5/developer/toolchains/gnu_arm/12.2.rel1_2023.7/bin/../lib/gcc/arm-none-eabi/12.2.1/thumb/v7e-m+fp/softfp\libc_nano.a(libc_a-strtol.o)
 .data          0x00000000        0x0 d:/simplicitystudio-5/developer/toolchains/gnu_arm/12.2.rel1_2023.7/bin/../lib/gcc/arm-none-eabi/12.2.1/thumb/v7e-m+fp/softfp\libc_nano.a(libc_a-strtol.o)
 .bss           0x00000000        0x0 d:/simplicitystudio-5/developer/toolchains/gnu_arm/12.2.rel1_2023.7/bin/../lib/gcc/arm-none-eabi/12.2.1/thumb/v7e-m+fp/softfp\libc_nano.a(libc_a-strtol.o)
 .text._strtol_r
                0x00000000        0x4 d:/simplicitystudio-5/developer/toolchains/gnu_arm/12.2.rel1_2023.7/bin/../lib/gcc/arm-none-eabi/12.2.1/thumb/v7e-m+fp/softfp\libc_nano.a(libc_a-strtol.o)
 .text.strtol_l
                0x00000000       0x14 d:/simplicitystudio-5/developer/toolchains/gnu_arm/12.2.rel1_2023.7/bin/../lib/gcc/arm-none-eabi/12.2.1/thumb/v7e-m+fp/softfp\libc_nano.a(libc_a-strtol.o)
 .text          0x00000000        0x0 d:/simplicitystudio-5/developer/toolchains/gnu_arm/12.2.rel1_2023.7/bin/../lib/gcc/arm-none-eabi/12.2.1/thumb/v7e-m+fp/softfp\libc_nano.a(libc_a-ctype_.o)
 .data          0x00000000        0x0 d:/simplicitystudio-5/developer/toolchains/gnu_arm/12.2.rel1_2023.7/bin/../lib/gcc/arm-none-eabi/12.2.1/thumb/v7e-m+fp/softfp\libc_nano.a(libc_a-ctype_.o)
 .bss           0x00000000        0x0 d:/simplicitystudio-5/developer/toolchains/gnu_arm/12.2.rel1_2023.7/bin/../lib/gcc/arm-none-eabi/12.2.1/thumb/v7e-m+fp/softfp\libc_nano.a(libc_a-ctype_.o)
 .text          0x00000000        0x0 d:/simplicitystudio-5/developer/toolchains/gnu_arm/12.2.rel1_2023.7/bin/../lib/gcc/arm-none-eabi/12.2.1/thumb/v7e-m+fp/softfp\libc_nano.a(libc_a-findfp.o)
 .data          0x00000000        0x0 d:/simplicitystudio-5/developer/toolchains/gnu_arm/12.2.rel1_2023.7/bin/../lib/gcc/arm-none-eabi/12.2.1/thumb/v7e-m+fp/softfp\libc_nano.a(libc_a-findfp.o)
 .bss           0x00000000        0x0 d:/simplicitystudio-5/developer/toolchains/gnu_arm/12.2.rel1_2023.7/bin/../lib/gcc/arm-none-eabi/12.2.1/thumb/v7e-m+fp/softfp\libc_nano.a(libc_a-findfp.o)
 .text.__fp_lock
                0x00000000       0x18 d:/simplicitystudio-5/developer/toolchains/gnu_arm/12.2.rel1_2023.7/bin/../lib/gcc/arm-none-eabi/12.2.1/thumb/v7e-m+fp/softfp\libc_nano.a(libc_a-findfp.o)
 .text.__fp_unlock
                0x00000000       0x18 d:/simplicitystudio-5/developer/toolchains/gnu_arm/12.2.rel1_2023.7/bin/../lib/gcc/arm-none-eabi/12.2.1/thumb/v7e-m+fp/softfp\libc_nano.a(libc_a-findfp.o)
 .text.__sfp    0x00000000       0xa4 d:/simplicitystudio-5/developer/toolchains/gnu_arm/12.2.rel1_2023.7/bin/../lib/gcc/arm-none-eabi/12.2.1/thumb/v7e-m+fp/softfp\libc_nano.a(libc_a-findfp.o)
 .text.__fp_lock_all
                0x00000000       0x1c d:/simplicitystudio-5/developer/toolchains/gnu_arm/12.2.rel1_2023.7/bin/../lib/gcc/arm-none-eabi/12.2.1/thumb/v7e-m+fp/softfp\libc_nano.a(libc_a-findfp.o)
 .text.__fp_unlock_all
                0x00000000       0x1c d:/simplicitystudio-5/developer/toolchains/gnu_arm/12.2.rel1_2023.7/bin/../lib/gcc/arm-none-eabi/12.2.1/thumb/v7e-m+fp/softfp\libc_nano.a(libc_a-findfp.o)
 .text          0x00000000        0x0 d:/simplicitystudio-5/developer/toolchains/gnu_arm/12.2.rel1_2023.7/bin/../lib/gcc/arm-none-eabi/12.2.1/thumb/v7e-m+fp/softfp\libc_nano.a(libc_a-fprintf.o)
 .data          0x00000000        0x0 d:/simplicitystudio-5/developer/toolchains/gnu_arm/12.2.rel1_2023.7/bin/../lib/gcc/arm-none-eabi/12.2.1/thumb/v7e-m+fp/softfp\libc_nano.a(libc_a-fprintf.o)
 .bss           0x00000000        0x0 d:/simplicitystudio-5/developer/toolchains/gnu_arm/12.2.rel1_2023.7/bin/../lib/gcc/arm-none-eabi/12.2.1/thumb/v7e-m+fp/softfp\libc_nano.a(libc_a-fprintf.o)
 .text._fprintf_r
                0x00000000       0x1a d:/simplicitystudio-5/developer/toolchains/gnu_arm/12.2.rel1_2023.7/bin/../lib/gcc/arm-none-eabi/12.2.1/thumb/v7e-m+fp/softfp\libc_nano.a(libc_a-fprintf.o)
 .text          0x00000000        0x0 d:/simplicitystudio-5/developer/toolchains/gnu_arm/12.2.rel1_2023.7/bin/../lib/gcc/arm-none-eabi/12.2.1/thumb/v7e-m+fp/softfp\libc_nano.a(libc_a-fwalk.o)
 .data          0x00000000        0x0 d:/simplicitystudio-5/developer/toolchains/gnu_arm/12.2.rel1_2023.7/bin/../lib/gcc/arm-none-eabi/12.2.1/thumb/v7e-m+fp/softfp\libc_nano.a(libc_a-fwalk.o)
 .bss           0x00000000        0x0 d:/simplicitystudio-5/developer/toolchains/gnu_arm/12.2.rel1_2023.7/bin/../lib/gcc/arm-none-eabi/12.2.1/thumb/v7e-m+fp/softfp\libc_nano.a(libc_a-fwalk.o)
 .text          0x00000000        0x0 d:/simplicitystudio-5/developer/toolchains/gnu_arm/12.2.rel1_2023.7/bin/../lib/gcc/arm-none-eabi/12.2.1/thumb/v7e-m+fp/softfp\libc_nano.a(libc_a-stdio.o)
 .data          0x00000000        0x0 d:/simplicitystudio-5/developer/toolchains/gnu_arm/12.2.rel1_2023.7/bin/../lib/gcc/arm-none-eabi/12.2.1/thumb/v7e-m+fp/softfp\libc_nano.a(libc_a-stdio.o)
 .bss           0x00000000        0x0 d:/simplicitystudio-5/developer/toolchains/gnu_arm/12.2.rel1_2023.7/bin/../lib/gcc/arm-none-eabi/12.2.1/thumb/v7e-m+fp/softfp\libc_nano.a(libc_a-stdio.o)
 .text.__seofread
                0x00000000        0x4 d:/simplicitystudio-5/developer/toolchains/gnu_arm/12.2.rel1_2023.7/bin/../lib/gcc/arm-none-eabi/12.2.1/thumb/v7e-m+fp/softfp\libc_nano.a(libc_a-stdio.o)
 .text          0x00000000        0x0 d:/simplicitystudio-5/developer/toolchains/gnu_arm/12.2.rel1_2023.7/bin/../lib/gcc/arm-none-eabi/12.2.1/thumb/v7e-m+fp/softfp\libc_nano.a(libc_a-vsnprintf.o)
 .data          0x00000000        0x0 d:/simplicitystudio-5/developer/toolchains/gnu_arm/12.2.rel1_2023.7/bin/../lib/gcc/arm-none-eabi/12.2.1/thumb/v7e-m+fp/softfp\libc_nano.a(libc_a-vsnprintf.o)
 .bss           0x00000000        0x0 d:/simplicitystudio-5/developer/toolchains/gnu_arm/12.2.rel1_2023.7/bin/../lib/gcc/arm-none-eabi/12.2.1/thumb/v7e-m+fp/softfp\libc_nano.a(libc_a-vsnprintf.o)
 .text          0x00000000        0x0 d:/simplicitystudio-5/developer/toolchains/gnu_arm/12.2.rel1_2023.7/bin/../lib/gcc/arm-none-eabi/12.2.1/thumb/v7e-m+fp/softfp\libc_nano.a(libc_a-memset.o)
 .data          0x00000000        0x0 d:/simplicitystudio-5/developer/toolchains/gnu_arm/12.2.rel1_2023.7/bin/../lib/gcc/arm-none-eabi/12.2.1/thumb/v7e-m+fp/softfp\libc_nano.a(libc_a-memset.o)
 .bss           0x00000000        0x0 d:/simplicitystudio-5/developer/toolchains/gnu_arm/12.2.rel1_2023.7/bin/../lib/gcc/arm-none-eabi/12.2.1/thumb/v7e-m+fp/softfp\libc_nano.a(libc_a-memset.o)
 .text          0x00000000        0x0 d:/simplicitystudio-5/developer/toolchains/gnu_arm/12.2.rel1_2023.7/bin/../lib/gcc/arm-none-eabi/12.2.1/thumb/v7e-m+fp/softfp\libc_nano.a(libc_a-strncmp.o)
 .data          0x00000000        0x0 d:/simplicitystudio-5/developer/toolchains/gnu_arm/12.2.rel1_2023.7/bin/../lib/gcc/arm-none-eabi/12.2.1/thumb/v7e-m+fp/softfp\libc_nano.a(libc_a-strncmp.o)
 .bss           0x00000000        0x0 d:/simplicitystudio-5/developer/toolchains/gnu_arm/12.2.rel1_2023.7/bin/../lib/gcc/arm-none-eabi/12.2.1/thumb/v7e-m+fp/softfp\libc_nano.a(libc_a-strncmp.o)
 .text          0x00000000        0x0 d:/simplicitystudio-5/developer/toolchains/gnu_arm/12.2.rel1_2023.7/bin/../lib/gcc/arm-none-eabi/12.2.1/thumb/v7e-m+fp/softfp\libc_nano.a(libc_a-closer.o)
 .data          0x00000000        0x0 d:/simplicitystudio-5/developer/toolchains/gnu_arm/12.2.rel1_2023.7/bin/../lib/gcc/arm-none-eabi/12.2.1/thumb/v7e-m+fp/softfp\libc_nano.a(libc_a-closer.o)
 .bss           0x00000000        0x0 d:/simplicitystudio-5/developer/toolchains/gnu_arm/12.2.rel1_2023.7/bin/../lib/gcc/arm-none-eabi/12.2.1/thumb/v7e-m+fp/softfp\libc_nano.a(libc_a-closer.o)
 .text          0x00000000        0x0 d:/simplicitystudio-5/developer/toolchains/gnu_arm/12.2.rel1_2023.7/bin/../lib/gcc/arm-none-eabi/12.2.1/thumb/v7e-m+fp/softfp\libc_nano.a(libc_a-reent.o)
 .data          0x00000000        0x0 d:/simplicitystudio-5/developer/toolchains/gnu_arm/12.2.rel1_2023.7/bin/../lib/gcc/arm-none-eabi/12.2.1/thumb/v7e-m+fp/softfp\libc_nano.a(libc_a-reent.o)
 .bss           0x00000000        0x0 d:/simplicitystudio-5/developer/toolchains/gnu_arm/12.2.rel1_2023.7/bin/../lib/gcc/arm-none-eabi/12.2.1/thumb/v7e-m+fp/softfp\libc_nano.a(libc_a-reent.o)
 .text._reclaim_reent
                0x00000000       0xac d:/simplicitystudio-5/developer/toolchains/gnu_arm/12.2.rel1_2023.7/bin/../lib/gcc/arm-none-eabi/12.2.1/thumb/v7e-m+fp/softfp\libc_nano.a(libc_a-reent.o)
 .text          0x00000000        0x0 d:/simplicitystudio-5/developer/toolchains/gnu_arm/12.2.rel1_2023.7/bin/../lib/gcc/arm-none-eabi/12.2.1/thumb/v7e-m+fp/softfp\libc_nano.a(libc_a-impure.o)
 .data          0x00000000        0x0 d:/simplicitystudio-5/developer/toolchains/gnu_arm/12.2.rel1_2023.7/bin/../lib/gcc/arm-none-eabi/12.2.1/thumb/v7e-m+fp/softfp\libc_nano.a(libc_a-impure.o)
 .bss           0x00000000        0x0 d:/simplicitystudio-5/developer/toolchains/gnu_arm/12.2.rel1_2023.7/bin/../lib/gcc/arm-none-eabi/12.2.1/thumb/v7e-m+fp/softfp\libc_nano.a(libc_a-impure.o)
 .text          0x00000000        0x0 d:/simplicitystudio-5/developer/toolchains/gnu_arm/12.2.rel1_2023.7/bin/../lib/gcc/arm-none-eabi/12.2.1/thumb/v7e-m+fp/softfp\libc_nano.a(libc_a-lseekr.o)
 .data          0x00000000        0x0 d:/simplicitystudio-5/developer/toolchains/gnu_arm/12.2.rel1_2023.7/bin/../lib/gcc/arm-none-eabi/12.2.1/thumb/v7e-m+fp/softfp\libc_nano.a(libc_a-lseekr.o)
 .bss           0x00000000        0x0 d:/simplicitystudio-5/developer/toolchains/gnu_arm/12.2.rel1_2023.7/bin/../lib/gcc/arm-none-eabi/12.2.1/thumb/v7e-m+fp/softfp\libc_nano.a(libc_a-lseekr.o)
 .text          0x00000000        0x0 d:/simplicitystudio-5/developer/toolchains/gnu_arm/12.2.rel1_2023.7/bin/../lib/gcc/arm-none-eabi/12.2.1/thumb/v7e-m+fp/softfp\libc_nano.a(libc_a-readr.o)
 .data          0x00000000        0x0 d:/simplicitystudio-5/developer/toolchains/gnu_arm/12.2.rel1_2023.7/bin/../lib/gcc/arm-none-eabi/12.2.1/thumb/v7e-m+fp/softfp\libc_nano.a(libc_a-readr.o)
 .bss           0x00000000        0x0 d:/simplicitystudio-5/developer/toolchains/gnu_arm/12.2.rel1_2023.7/bin/../lib/gcc/arm-none-eabi/12.2.1/thumb/v7e-m+fp/softfp\libc_nano.a(libc_a-readr.o)
 .text          0x00000000        0x0 d:/simplicitystudio-5/developer/toolchains/gnu_arm/12.2.rel1_2023.7/bin/../lib/gcc/arm-none-eabi/12.2.1/thumb/v7e-m+fp/softfp\libc_nano.a(libc_a-sbrkr.o)
 .data          0x00000000        0x0 d:/simplicitystudio-5/developer/toolchains/gnu_arm/12.2.rel1_2023.7/bin/../lib/gcc/arm-none-eabi/12.2.1/thumb/v7e-m+fp/softfp\libc_nano.a(libc_a-sbrkr.o)
 .bss           0x00000000        0x0 d:/simplicitystudio-5/developer/toolchains/gnu_arm/12.2.rel1_2023.7/bin/../lib/gcc/arm-none-eabi/12.2.1/thumb/v7e-m+fp/softfp\libc_nano.a(libc_a-sbrkr.o)
 .text          0x00000000        0x0 d:/simplicitystudio-5/developer/toolchains/gnu_arm/12.2.rel1_2023.7/bin/../lib/gcc/arm-none-eabi/12.2.1/thumb/v7e-m+fp/softfp\libc_nano.a(libc_a-writer.o)
 .data          0x00000000        0x0 d:/simplicitystudio-5/developer/toolchains/gnu_arm/12.2.rel1_2023.7/bin/../lib/gcc/arm-none-eabi/12.2.1/thumb/v7e-m+fp/softfp\libc_nano.a(libc_a-writer.o)
 .bss           0x00000000        0x0 d:/simplicitystudio-5/developer/toolchains/gnu_arm/12.2.rel1_2023.7/bin/../lib/gcc/arm-none-eabi/12.2.1/thumb/v7e-m+fp/softfp\libc_nano.a(libc_a-writer.o)
 .text          0x00000000        0x0 d:/simplicitystudio-5/developer/toolchains/gnu_arm/12.2.rel1_2023.7/bin/../lib/gcc/arm-none-eabi/12.2.1/thumb/v7e-m+fp/softfp\libc_nano.a(libc_a-errno.o)
 .data          0x00000000        0x0 d:/simplicitystudio-5/developer/toolchains/gnu_arm/12.2.rel1_2023.7/bin/../lib/gcc/arm-none-eabi/12.2.1/thumb/v7e-m+fp/softfp\libc_nano.a(libc_a-errno.o)
 .bss           0x00000000        0x0 d:/simplicitystudio-5/developer/toolchains/gnu_arm/12.2.rel1_2023.7/bin/../lib/gcc/arm-none-eabi/12.2.1/thumb/v7e-m+fp/softfp\libc_nano.a(libc_a-errno.o)
 .text          0x00000000        0x0 d:/simplicitystudio-5/developer/toolchains/gnu_arm/12.2.rel1_2023.7/bin/../lib/gcc/arm-none-eabi/12.2.1/thumb/v7e-m+fp/softfp\libc_nano.a(libc_a-init.o)
 .data          0x00000000        0x0 d:/simplicitystudio-5/developer/toolchains/gnu_arm/12.2.rel1_2023.7/bin/../lib/gcc/arm-none-eabi/12.2.1/thumb/v7e-m+fp/softfp\libc_nano.a(libc_a-init.o)
 .bss           0x00000000        0x0 d:/simplicitystudio-5/developer/toolchains/gnu_arm/12.2.rel1_2023.7/bin/../lib/gcc/arm-none-eabi/12.2.1/thumb/v7e-m+fp/softfp\libc_nano.a(libc_a-init.o)
 .text          0x00000000        0x0 d:/simplicitystudio-5/developer/toolchains/gnu_arm/12.2.rel1_2023.7/bin/../lib/gcc/arm-none-eabi/12.2.1/thumb/v7e-m+fp/softfp\libc_nano.a(libc_a-lock.o)
 .data          0x00000000        0x0 d:/simplicitystudio-5/developer/toolchains/gnu_arm/12.2.rel1_2023.7/bin/../lib/gcc/arm-none-eabi/12.2.1/thumb/v7e-m+fp/softfp\libc_nano.a(libc_a-lock.o)
 .bss           0x00000000        0x0 d:/simplicitystudio-5/developer/toolchains/gnu_arm/12.2.rel1_2023.7/bin/../lib/gcc/arm-none-eabi/12.2.1/thumb/v7e-m+fp/softfp\libc_nano.a(libc_a-lock.o)
 .text.__retarget_lock_init
                0x00000000        0x2 d:/simplicitystudio-5/developer/toolchains/gnu_arm/12.2.rel1_2023.7/bin/../lib/gcc/arm-none-eabi/12.2.1/thumb/v7e-m+fp/softfp\libc_nano.a(libc_a-lock.o)
 .text.__retarget_lock_close
                0x00000000        0x2 d:/simplicitystudio-5/developer/toolchains/gnu_arm/12.2.rel1_2023.7/bin/../lib/gcc/arm-none-eabi/12.2.1/thumb/v7e-m+fp/softfp\libc_nano.a(libc_a-lock.o)
 .text.__retarget_lock_close_recursive
                0x00000000        0x2 d:/simplicitystudio-5/developer/toolchains/gnu_arm/12.2.rel1_2023.7/bin/../lib/gcc/arm-none-eabi/12.2.1/thumb/v7e-m+fp/softfp\libc_nano.a(libc_a-lock.o)
 .text.__retarget_lock_acquire
                0x00000000        0x2 d:/simplicitystudio-5/developer/toolchains/gnu_arm/12.2.rel1_2023.7/bin/../lib/gcc/arm-none-eabi/12.2.1/thumb/v7e-m+fp/softfp\libc_nano.a(libc_a-lock.o)
 .text.__retarget_lock_try_acquire
                0x00000000        0x4 d:/simplicitystudio-5/developer/toolchains/gnu_arm/12.2.rel1_2023.7/bin/../lib/gcc/arm-none-eabi/12.2.1/thumb/v7e-m+fp/softfp\libc_nano.a(libc_a-lock.o)
 .text.__retarget_lock_try_acquire_recursive
                0x00000000        0x4 d:/simplicitystudio-5/developer/toolchains/gnu_arm/12.2.rel1_2023.7/bin/../lib/gcc/arm-none-eabi/12.2.1/thumb/v7e-m+fp/softfp\libc_nano.a(libc_a-lock.o)
 .text.__retarget_lock_release
                0x00000000        0x2 d:/simplicitystudio-5/developer/toolchains/gnu_arm/12.2.rel1_2023.7/bin/../lib/gcc/arm-none-eabi/12.2.1/thumb/v7e-m+fp/softfp\libc_nano.a(libc_a-lock.o)
 .bss.__lock___arc4random_mutex
                0x00000000        0x1 d:/simplicitystudio-5/developer/toolchains/gnu_arm/12.2.rel1_2023.7/bin/../lib/gcc/arm-none-eabi/12.2.1/thumb/v7e-m+fp/softfp\libc_nano.a(libc_a-lock.o)
 .bss.__lock___dd_hash_mutex
                0x00000000        0x1 d:/simplicitystudio-5/developer/toolchains/gnu_arm/12.2.rel1_2023.7/bin/../lib/gcc/arm-none-eabi/12.2.1/thumb/v7e-m+fp/softfp\libc_nano.a(libc_a-lock.o)
 .bss.__lock___tz_mutex
                0x00000000        0x1 d:/simplicitystudio-5/developer/toolchains/gnu_arm/12.2.rel1_2023.7/bin/../lib/gcc/arm-none-eabi/12.2.1/thumb/v7e-m+fp/softfp\libc_nano.a(libc_a-lock.o)
 .bss.__lock___env_recursive_mutex
                0x00000000        0x1 d:/simplicitystudio-5/developer/toolchains/gnu_arm/12.2.rel1_2023.7/bin/../lib/gcc/arm-none-eabi/12.2.1/thumb/v7e-m+fp/softfp\libc_nano.a(libc_a-lock.o)
 .bss.__lock___at_quick_exit_mutex
                0x00000000        0x1 d:/simplicitystudio-5/developer/toolchains/gnu_arm/12.2.rel1_2023.7/bin/../lib/gcc/arm-none-eabi/12.2.1/thumb/v7e-m+fp/softfp\libc_nano.a(libc_a-lock.o)
 .bss.__lock___atexit_recursive_mutex
                0x00000000        0x1 d:/simplicitystudio-5/developer/toolchains/gnu_arm/12.2.rel1_2023.7/bin/../lib/gcc/arm-none-eabi/12.2.1/thumb/v7e-m+fp/softfp\libc_nano.a(libc_a-lock.o)
 .data          0x00000000        0x0 d:/simplicitystudio-5/developer/toolchains/gnu_arm/12.2.rel1_2023.7/bin/../lib/gcc/arm-none-eabi/12.2.1/thumb/v7e-m+fp/softfp\libc_nano.a(libc_a-strcmp.o)
 .bss           0x00000000        0x0 d:/simplicitystudio-5/developer/toolchains/gnu_arm/12.2.rel1_2023.7/bin/../lib/gcc/arm-none-eabi/12.2.1/thumb/v7e-m+fp/softfp\libc_nano.a(libc_a-strcmp.o)
 .text          0x00000000        0x0 d:/simplicitystudio-5/developer/toolchains/gnu_arm/12.2.rel1_2023.7/bin/../lib/gcc/arm-none-eabi/12.2.1/thumb/v7e-m+fp/softfp\libc_nano.a(libc_a-memcpy-stub.o)
 .data          0x00000000        0x0 d:/simplicitystudio-5/developer/toolchains/gnu_arm/12.2.rel1_2023.7/bin/../lib/gcc/arm-none-eabi/12.2.1/thumb/v7e-m+fp/softfp\libc_nano.a(libc_a-memcpy-stub.o)
 .bss           0x00000000        0x0 d:/simplicitystudio-5/developer/toolchains/gnu_arm/12.2.rel1_2023.7/bin/../lib/gcc/arm-none-eabi/12.2.1/thumb/v7e-m+fp/softfp\libc_nano.a(libc_a-memcpy-stub.o)
 .text          0x00000000        0x0 d:/simplicitystudio-5/developer/toolchains/gnu_arm/12.2.rel1_2023.7/bin/../lib/gcc/arm-none-eabi/12.2.1/thumb/v7e-m+fp/softfp\libc_nano.a(libm_a-s_ldexp.o)
 .data          0x00000000        0x0 d:/simplicitystudio-5/developer/toolchains/gnu_arm/12.2.rel1_2023.7/bin/../lib/gcc/arm-none-eabi/12.2.1/thumb/v7e-m+fp/softfp\libc_nano.a(libm_a-s_ldexp.o)
 .bss           0x00000000        0x0 d:/simplicitystudio-5/developer/toolchains/gnu_arm/12.2.rel1_2023.7/bin/../lib/gcc/arm-none-eabi/12.2.1/thumb/v7e-m+fp/softfp\libc_nano.a(libm_a-s_ldexp.o)
 .text          0x00000000        0x0 d:/simplicitystudio-5/developer/toolchains/gnu_arm/12.2.rel1_2023.7/bin/../lib/gcc/arm-none-eabi/12.2.1/thumb/v7e-m+fp/softfp\libc_nano.a(libm_a-s_scalbn.o)
 .data          0x00000000        0x0 d:/simplicitystudio-5/developer/toolchains/gnu_arm/12.2.rel1_2023.7/bin/../lib/gcc/arm-none-eabi/12.2.1/thumb/v7e-m+fp/softfp\libc_nano.a(libm_a-s_scalbn.o)
 .bss           0x00000000        0x0 d:/simplicitystudio-5/developer/toolchains/gnu_arm/12.2.rel1_2023.7/bin/../lib/gcc/arm-none-eabi/12.2.1/thumb/v7e-m+fp/softfp\libc_nano.a(libm_a-s_scalbn.o)
 .text          0x00000000        0x0 d:/simplicitystudio-5/developer/toolchains/gnu_arm/12.2.rel1_2023.7/bin/../lib/gcc/arm-none-eabi/12.2.1/thumb/v7e-m+fp/softfp\libc_nano.a(libm_a-s_finite.o)
 .data          0x00000000        0x0 d:/simplicitystudio-5/developer/toolchains/gnu_arm/12.2.rel1_2023.7/bin/../lib/gcc/arm-none-eabi/12.2.1/thumb/v7e-m+fp/softfp\libc_nano.a(libm_a-s_finite.o)
 .bss           0x00000000        0x0 d:/simplicitystudio-5/developer/toolchains/gnu_arm/12.2.rel1_2023.7/bin/../lib/gcc/arm-none-eabi/12.2.1/thumb/v7e-m+fp/softfp\libc_nano.a(libm_a-s_finite.o)
 .text          0x00000000        0x0 d:/simplicitystudio-5/developer/toolchains/gnu_arm/12.2.rel1_2023.7/bin/../lib/gcc/arm-none-eabi/12.2.1/thumb/v7e-m+fp/softfp\libc_nano.a(libc_a-abort.o)
 .data          0x00000000        0x0 d:/simplicitystudio-5/developer/toolchains/gnu_arm/12.2.rel1_2023.7/bin/../lib/gcc/arm-none-eabi/12.2.1/thumb/v7e-m+fp/softfp\libc_nano.a(libc_a-abort.o)
 .bss           0x00000000        0x0 d:/simplicitystudio-5/developer/toolchains/gnu_arm/12.2.rel1_2023.7/bin/../lib/gcc/arm-none-eabi/12.2.1/thumb/v7e-m+fp/softfp\libc_nano.a(libc_a-abort.o)
 .text          0x00000000        0x0 d:/simplicitystudio-5/developer/toolchains/gnu_arm/12.2.rel1_2023.7/bin/../lib/gcc/arm-none-eabi/12.2.1/thumb/v7e-m+fp/softfp\libc_nano.a(libc_a-freer.o)
 .data          0x00000000        0x0 d:/simplicitystudio-5/developer/toolchains/gnu_arm/12.2.rel1_2023.7/bin/../lib/gcc/arm-none-eabi/12.2.1/thumb/v7e-m+fp/softfp\libc_nano.a(libc_a-freer.o)
 .bss           0x00000000        0x0 d:/simplicitystudio-5/developer/toolchains/gnu_arm/12.2.rel1_2023.7/bin/../lib/gcc/arm-none-eabi/12.2.1/thumb/v7e-m+fp/softfp\libc_nano.a(libc_a-freer.o)
 .text          0x00000000        0x0 d:/simplicitystudio-5/developer/toolchains/gnu_arm/12.2.rel1_2023.7/bin/../lib/gcc/arm-none-eabi/12.2.1/thumb/v7e-m+fp/softfp\libc_nano.a(libc_a-msizer.o)
 .data          0x00000000        0x0 d:/simplicitystudio-5/developer/toolchains/gnu_arm/12.2.rel1_2023.7/bin/../lib/gcc/arm-none-eabi/12.2.1/thumb/v7e-m+fp/softfp\libc_nano.a(libc_a-msizer.o)
 .bss           0x00000000        0x0 d:/simplicitystudio-5/developer/toolchains/gnu_arm/12.2.rel1_2023.7/bin/../lib/gcc/arm-none-eabi/12.2.1/thumb/v7e-m+fp/softfp\libc_nano.a(libc_a-msizer.o)
 .text          0x00000000        0x0 d:/simplicitystudio-5/developer/toolchains/gnu_arm/12.2.rel1_2023.7/bin/../lib/gcc/arm-none-eabi/12.2.1/thumb/v7e-m+fp/softfp\libc_nano.a(libc_a-nano-svfprintf.o)
 .data          0x00000000        0x0 d:/simplicitystudio-5/developer/toolchains/gnu_arm/12.2.rel1_2023.7/bin/../lib/gcc/arm-none-eabi/12.2.1/thumb/v7e-m+fp/softfp\libc_nano.a(libc_a-nano-svfprintf.o)
 .bss           0x00000000        0x0 d:/simplicitystudio-5/developer/toolchains/gnu_arm/12.2.rel1_2023.7/bin/../lib/gcc/arm-none-eabi/12.2.1/thumb/v7e-m+fp/softfp\libc_nano.a(libc_a-nano-svfprintf.o)
 .text.__ssprint_r
                0x00000000       0xfa d:/simplicitystudio-5/developer/toolchains/gnu_arm/12.2.rel1_2023.7/bin/../lib/gcc/arm-none-eabi/12.2.1/thumb/v7e-m+fp/softfp\libc_nano.a(libc_a-nano-svfprintf.o)
 .text          0x00000000        0x0 d:/simplicitystudio-5/developer/toolchains/gnu_arm/12.2.rel1_2023.7/bin/../lib/gcc/arm-none-eabi/12.2.1/thumb/v7e-m+fp/softfp\libc_nano.a(libc_a-nano-vfprintf.o)
 .data          0x00000000        0x0 d:/simplicitystudio-5/developer/toolchains/gnu_arm/12.2.rel1_2023.7/bin/../lib/gcc/arm-none-eabi/12.2.1/thumb/v7e-m+fp/softfp\libc_nano.a(libc_a-nano-vfprintf.o)
 .bss           0x00000000        0x0 d:/simplicitystudio-5/developer/toolchains/gnu_arm/12.2.rel1_2023.7/bin/../lib/gcc/arm-none-eabi/12.2.1/thumb/v7e-m+fp/softfp\libc_nano.a(libc_a-nano-vfprintf.o)
 .text.__sprint_r
                0x00000000       0x1a d:/simplicitystudio-5/developer/toolchains/gnu_arm/12.2.rel1_2023.7/bin/../lib/gcc/arm-none-eabi/12.2.1/thumb/v7e-m+fp/softfp\libc_nano.a(libc_a-nano-vfprintf.o)
 .text.vfprintf
                0x00000000       0x14 d:/simplicitystudio-5/developer/toolchains/gnu_arm/12.2.rel1_2023.7/bin/../lib/gcc/arm-none-eabi/12.2.1/thumb/v7e-m+fp/softfp\libc_nano.a(libc_a-nano-vfprintf.o)
 .text          0x00000000        0x0 d:/simplicitystudio-5/developer/toolchains/gnu_arm/12.2.rel1_2023.7/bin/../lib/gcc/arm-none-eabi/12.2.1/thumb/v7e-m+fp/softfp\libc_nano.a(libc_a-nano-vfprintf_i.o)
 .data          0x00000000        0x0 d:/simplicitystudio-5/developer/toolchains/gnu_arm/12.2.rel1_2023.7/bin/../lib/gcc/arm-none-eabi/12.2.1/thumb/v7e-m+fp/softfp\libc_nano.a(libc_a-nano-vfprintf_i.o)
 .bss           0x00000000        0x0 d:/simplicitystudio-5/developer/toolchains/gnu_arm/12.2.rel1_2023.7/bin/../lib/gcc/arm-none-eabi/12.2.1/thumb/v7e-m+fp/softfp\libc_nano.a(libc_a-nano-vfprintf_i.o)
 .text          0x00000000        0x0 d:/simplicitystudio-5/developer/toolchains/gnu_arm/12.2.rel1_2023.7/bin/../lib/gcc/arm-none-eabi/12.2.1/thumb/v7e-m+fp/softfp\libc_nano.a(libc_a-fflush.o)
 .data          0x00000000        0x0 d:/simplicitystudio-5/developer/toolchains/gnu_arm/12.2.rel1_2023.7/bin/../lib/gcc/arm-none-eabi/12.2.1/thumb/v7e-m+fp/softfp\libc_nano.a(libc_a-fflush.o)
 .bss           0x00000000        0x0 d:/simplicitystudio-5/developer/toolchains/gnu_arm/12.2.rel1_2023.7/bin/../lib/gcc/arm-none-eabi/12.2.1/thumb/v7e-m+fp/softfp\libc_nano.a(libc_a-fflush.o)
 .text.fflush   0x00000000       0x28 d:/simplicitystudio-5/developer/toolchains/gnu_arm/12.2.rel1_2023.7/bin/../lib/gcc/arm-none-eabi/12.2.1/thumb/v7e-m+fp/softfp\libc_nano.a(libc_a-fflush.o)
 .text          0x00000000        0x0 d:/simplicitystudio-5/developer/toolchains/gnu_arm/12.2.rel1_2023.7/bin/../lib/gcc/arm-none-eabi/12.2.1/thumb/v7e-m+fp/softfp\libc_nano.a(libc_a-fvwrite.o)
 .data          0x00000000        0x0 d:/simplicitystudio-5/developer/toolchains/gnu_arm/12.2.rel1_2023.7/bin/../lib/gcc/arm-none-eabi/12.2.1/thumb/v7e-m+fp/softfp\libc_nano.a(libc_a-fvwrite.o)
 .bss           0x00000000        0x0 d:/simplicitystudio-5/developer/toolchains/gnu_arm/12.2.rel1_2023.7/bin/../lib/gcc/arm-none-eabi/12.2.1/thumb/v7e-m+fp/softfp\libc_nano.a(libc_a-fvwrite.o)
 .text.__sfvwrite_r
                0x00000000      0x2a0 d:/simplicitystudio-5/developer/toolchains/gnu_arm/12.2.rel1_2023.7/bin/../lib/gcc/arm-none-eabi/12.2.1/thumb/v7e-m+fp/softfp\libc_nano.a(libc_a-fvwrite.o)
 .debug_frame   0x00000000       0x3c d:/simplicitystudio-5/developer/toolchains/gnu_arm/12.2.rel1_2023.7/bin/../lib/gcc/arm-none-eabi/12.2.1/thumb/v7e-m+fp/softfp\libc_nano.a(libc_a-fvwrite.o)
 .ARM.attributes
                0x00000000       0x32 d:/simplicitystudio-5/developer/toolchains/gnu_arm/12.2.rel1_2023.7/bin/../lib/gcc/arm-none-eabi/12.2.1/thumb/v7e-m+fp/softfp\libc_nano.a(libc_a-fvwrite.o)
 .text          0x00000000        0x0 d:/simplicitystudio-5/developer/toolchains/gnu_arm/12.2.rel1_2023.7/bin/../lib/gcc/arm-none-eabi/12.2.1/thumb/v7e-m+fp/softfp\libc_nano.a(libc_a-wbuf.o)
 .data          0x00000000        0x0 d:/simplicitystudio-5/developer/toolchains/gnu_arm/12.2.rel1_2023.7/bin/../lib/gcc/arm-none-eabi/12.2.1/thumb/v7e-m+fp/softfp\libc_nano.a(libc_a-wbuf.o)
 .bss           0x00000000        0x0 d:/simplicitystudio-5/developer/toolchains/gnu_arm/12.2.rel1_2023.7/bin/../lib/gcc/arm-none-eabi/12.2.1/thumb/v7e-m+fp/softfp\libc_nano.a(libc_a-wbuf.o)
 .text.__swbuf  0x00000000       0x10 d:/simplicitystudio-5/developer/toolchains/gnu_arm/12.2.rel1_2023.7/bin/../lib/gcc/arm-none-eabi/12.2.1/thumb/v7e-m+fp/softfp\libc_nano.a(libc_a-wbuf.o)
 .text          0x00000000        0x0 d:/simplicitystudio-5/developer/toolchains/gnu_arm/12.2.rel1_2023.7/bin/../lib/gcc/arm-none-eabi/12.2.1/thumb/v7e-m+fp/softfp\libc_nano.a(libc_a-wsetup.o)
 .data          0x00000000        0x0 d:/simplicitystudio-5/developer/toolchains/gnu_arm/12.2.rel1_2023.7/bin/../lib/gcc/arm-none-eabi/12.2.1/thumb/v7e-m+fp/softfp\libc_nano.a(libc_a-wsetup.o)
 .bss           0x00000000        0x0 d:/simplicitystudio-5/developer/toolchains/gnu_arm/12.2.rel1_2023.7/bin/../lib/gcc/arm-none-eabi/12.2.1/thumb/v7e-m+fp/softfp\libc_nano.a(libc_a-wsetup.o)
 .text          0x00000000        0x0 d:/simplicitystudio-5/developer/toolchains/gnu_arm/12.2.rel1_2023.7/bin/../lib/gcc/arm-none-eabi/12.2.1/thumb/v7e-m+fp/softfp\libc_nano.a(libc_a-memmove.o)
 .data          0x00000000        0x0 d:/simplicitystudio-5/developer/toolchains/gnu_arm/12.2.rel1_2023.7/bin/../lib/gcc/arm-none-eabi/12.2.1/thumb/v7e-m+fp/softfp\libc_nano.a(libc_a-memmove.o)
 .bss           0x00000000        0x0 d:/simplicitystudio-5/developer/toolchains/gnu_arm/12.2.rel1_2023.7/bin/../lib/gcc/arm-none-eabi/12.2.1/thumb/v7e-m+fp/softfp\libc_nano.a(libc_a-memmove.o)
 .text          0x00000000        0x0 d:/simplicitystudio-5/developer/toolchains/gnu_arm/12.2.rel1_2023.7/bin/../lib/gcc/arm-none-eabi/12.2.1/thumb/v7e-m+fp/softfp\libc_nano.a(libc_a-signal.o)
 .data          0x00000000        0x0 d:/simplicitystudio-5/developer/toolchains/gnu_arm/12.2.rel1_2023.7/bin/../lib/gcc/arm-none-eabi/12.2.1/thumb/v7e-m+fp/softfp\libc_nano.a(libc_a-signal.o)
 .bss           0x00000000        0x0 d:/simplicitystudio-5/developer/toolchains/gnu_arm/12.2.rel1_2023.7/bin/../lib/gcc/arm-none-eabi/12.2.1/thumb/v7e-m+fp/softfp\libc_nano.a(libc_a-signal.o)
 .text._init_signal_r
                0x00000000       0x28 d:/simplicitystudio-5/developer/toolchains/gnu_arm/12.2.rel1_2023.7/bin/../lib/gcc/arm-none-eabi/12.2.1/thumb/v7e-m+fp/softfp\libc_nano.a(libc_a-signal.o)
 .text._signal_r
                0x00000000       0x30 d:/simplicitystudio-5/developer/toolchains/gnu_arm/12.2.rel1_2023.7/bin/../lib/gcc/arm-none-eabi/12.2.1/thumb/v7e-m+fp/softfp\libc_nano.a(libc_a-signal.o)
 .text.__sigtramp_r
                0x00000000       0x48 d:/simplicitystudio-5/developer/toolchains/gnu_arm/12.2.rel1_2023.7/bin/../lib/gcc/arm-none-eabi/12.2.1/thumb/v7e-m+fp/softfp\libc_nano.a(libc_a-signal.o)
 .text.signal   0x00000000       0x10 d:/simplicitystudio-5/developer/toolchains/gnu_arm/12.2.rel1_2023.7/bin/../lib/gcc/arm-none-eabi/12.2.1/thumb/v7e-m+fp/softfp\libc_nano.a(libc_a-signal.o)
 .text._init_signal
                0x00000000        0xc d:/simplicitystudio-5/developer/toolchains/gnu_arm/12.2.rel1_2023.7/bin/../lib/gcc/arm-none-eabi/12.2.1/thumb/v7e-m+fp/softfp\libc_nano.a(libc_a-signal.o)
 .text.__sigtramp
                0x00000000       0x10 d:/simplicitystudio-5/developer/toolchains/gnu_arm/12.2.rel1_2023.7/bin/../lib/gcc/arm-none-eabi/12.2.1/thumb/v7e-m+fp/softfp\libc_nano.a(libc_a-signal.o)
 .text          0x00000000        0x0 d:/simplicitystudio-5/developer/toolchains/gnu_arm/12.2.rel1_2023.7/bin/../lib/gcc/arm-none-eabi/12.2.1/thumb/v7e-m+fp/softfp\libc_nano.a(libc_a-signalr.o)
 .data          0x00000000        0x0 d:/simplicitystudio-5/developer/toolchains/gnu_arm/12.2.rel1_2023.7/bin/../lib/gcc/arm-none-eabi/12.2.1/thumb/v7e-m+fp/softfp\libc_nano.a(libc_a-signalr.o)
 .bss           0x00000000        0x0 d:/simplicitystudio-5/developer/toolchains/gnu_arm/12.2.rel1_2023.7/bin/../lib/gcc/arm-none-eabi/12.2.1/thumb/v7e-m+fp/softfp\libc_nano.a(libc_a-signalr.o)
 .data          0x00000000        0x0 d:/simplicitystudio-5/developer/toolchains/gnu_arm/12.2.rel1_2023.7/bin/../lib/gcc/arm-none-eabi/12.2.1/thumb/v7e-m+fp/softfp\libc_nano.a(libc_a-memchr.o)
 .bss           0x00000000        0x0 d:/simplicitystudio-5/developer/toolchains/gnu_arm/12.2.rel1_2023.7/bin/../lib/gcc/arm-none-eabi/12.2.1/thumb/v7e-m+fp/softfp\libc_nano.a(libc_a-memchr.o)
 .text          0x00000000        0x0 d:/simplicitystudio-5/developer/toolchains/gnu_arm/12.2.rel1_2023.7/bin/../lib/gcc/arm-none-eabi/12.2.1/thumb/v7e-m+fp/softfp\libc_nano.a(libc_a-makebuf.o)
 .data          0x00000000        0x0 d:/simplicitystudio-5/developer/toolchains/gnu_arm/12.2.rel1_2023.7/bin/../lib/gcc/arm-none-eabi/12.2.1/thumb/v7e-m+fp/softfp\libc_nano.a(libc_a-makebuf.o)
 .bss           0x00000000        0x0 d:/simplicitystudio-5/developer/toolchains/gnu_arm/12.2.rel1_2023.7/bin/../lib/gcc/arm-none-eabi/12.2.1/thumb/v7e-m+fp/softfp\libc_nano.a(libc_a-makebuf.o)
 .text          0x00000000        0x0 d:/simplicitystudio-5/developer/toolchains/gnu_arm/12.2.rel1_2023.7/bin/../lib/gcc/arm-none-eabi/12.2.1/thumb/v7e-m+fp/softfp\libc_nano.a(libc_a-fstatr.o)
 .data          0x00000000        0x0 d:/simplicitystudio-5/developer/toolchains/gnu_arm/12.2.rel1_2023.7/bin/../lib/gcc/arm-none-eabi/12.2.1/thumb/v7e-m+fp/softfp\libc_nano.a(libc_a-fstatr.o)
 .bss           0x00000000        0x0 d:/simplicitystudio-5/developer/toolchains/gnu_arm/12.2.rel1_2023.7/bin/../lib/gcc/arm-none-eabi/12.2.1/thumb/v7e-m+fp/softfp\libc_nano.a(libc_a-fstatr.o)
 .text          0x00000000        0x0 d:/simplicitystudio-5/developer/toolchains/gnu_arm/12.2.rel1_2023.7/bin/../lib/gcc/arm-none-eabi/12.2.1/thumb/v7e-m+fp/softfp\libc_nano.a(libc_a-isattyr.o)
 .data          0x00000000        0x0 d:/simplicitystudio-5/developer/toolchains/gnu_arm/12.2.rel1_2023.7/bin/../lib/gcc/arm-none-eabi/12.2.1/thumb/v7e-m+fp/softfp\libc_nano.a(libc_a-isattyr.o)
 .bss           0x00000000        0x0 d:/simplicitystudio-5/developer/toolchains/gnu_arm/12.2.rel1_2023.7/bin/../lib/gcc/arm-none-eabi/12.2.1/thumb/v7e-m+fp/softfp\libc_nano.a(libc_a-isattyr.o)
 .text          0x00000000        0x0 d:/simplicitystudio-5/developer/toolchains/gnu_arm/12.2.rel1_2023.7/bin/../lib/gcc/arm-none-eabi/12.2.1/thumb/v7e-m+fp/softfp\libm.a(libm_a-w_pow.o)
 .data          0x00000000        0x0 d:/simplicitystudio-5/developer/toolchains/gnu_arm/12.2.rel1_2023.7/bin/../lib/gcc/arm-none-eabi/12.2.1/thumb/v7e-m+fp/softfp\libm.a(libm_a-w_pow.o)
 .bss           0x00000000        0x0 d:/simplicitystudio-5/developer/toolchains/gnu_arm/12.2.rel1_2023.7/bin/../lib/gcc/arm-none-eabi/12.2.1/thumb/v7e-m+fp/softfp\libm.a(libm_a-w_pow.o)
 .text          0x00000000        0x0 d:/simplicitystudio-5/developer/toolchains/gnu_arm/12.2.rel1_2023.7/bin/../lib/gcc/arm-none-eabi/12.2.1/thumb/v7e-m+fp/softfp\libm.a(libm_a-e_pow.o)
 .data          0x00000000        0x0 d:/simplicitystudio-5/developer/toolchains/gnu_arm/12.2.rel1_2023.7/bin/../lib/gcc/arm-none-eabi/12.2.1/thumb/v7e-m+fp/softfp\libm.a(libm_a-e_pow.o)
 .bss           0x00000000        0x0 d:/simplicitystudio-5/developer/toolchains/gnu_arm/12.2.rel1_2023.7/bin/../lib/gcc/arm-none-eabi/12.2.1/thumb/v7e-m+fp/softfp\libm.a(libm_a-e_pow.o)
 .text          0x00000000        0x0 d:/simplicitystudio-5/developer/toolchains/gnu_arm/12.2.rel1_2023.7/bin/../lib/gcc/arm-none-eabi/12.2.1/thumb/v7e-m+fp/softfp\libm.a(libm_a-s_fabs.o)
 .data          0x00000000        0x0 d:/simplicitystudio-5/developer/toolchains/gnu_arm/12.2.rel1_2023.7/bin/../lib/gcc/arm-none-eabi/12.2.1/thumb/v7e-m+fp/softfp\libm.a(libm_a-s_fabs.o)
 .bss           0x00000000        0x0 d:/simplicitystudio-5/developer/toolchains/gnu_arm/12.2.rel1_2023.7/bin/../lib/gcc/arm-none-eabi/12.2.1/thumb/v7e-m+fp/softfp\libm.a(libm_a-s_fabs.o)
 .text          0x00000000        0x0 d:/simplicitystudio-5/developer/toolchains/gnu_arm/12.2.rel1_2023.7/bin/../lib/gcc/arm-none-eabi/12.2.1/thumb/v7e-m+fp/softfp\libm.a(libm_a-math_err.o)
 .data          0x00000000        0x0 d:/simplicitystudio-5/developer/toolchains/gnu_arm/12.2.rel1_2023.7/bin/../lib/gcc/arm-none-eabi/12.2.1/thumb/v7e-m+fp/softfp\libm.a(libm_a-math_err.o)
 .bss           0x00000000        0x0 d:/simplicitystudio-5/developer/toolchains/gnu_arm/12.2.rel1_2023.7/bin/../lib/gcc/arm-none-eabi/12.2.1/thumb/v7e-m+fp/softfp\libm.a(libm_a-math_err.o)
 .text.__math_may_uflow
                0x00000000        0xc d:/simplicitystudio-5/developer/toolchains/gnu_arm/12.2.rel1_2023.7/bin/../lib/gcc/arm-none-eabi/12.2.1/thumb/v7e-m+fp/softfp\libm.a(libm_a-math_err.o)
 .text.__math_divzero
                0x00000000       0x34 d:/simplicitystudio-5/developer/toolchains/gnu_arm/12.2.rel1_2023.7/bin/../lib/gcc/arm-none-eabi/12.2.1/thumb/v7e-m+fp/softfp\libm.a(libm_a-math_err.o)
 .text.__math_invalid
                0x00000000       0x3c d:/simplicitystudio-5/developer/toolchains/gnu_arm/12.2.rel1_2023.7/bin/../lib/gcc/arm-none-eabi/12.2.1/thumb/v7e-m+fp/softfp\libm.a(libm_a-math_err.o)
 .text.__math_check_uflow
                0x00000000       0x24 d:/simplicitystudio-5/developer/toolchains/gnu_arm/12.2.rel1_2023.7/bin/../lib/gcc/arm-none-eabi/12.2.1/thumb/v7e-m+fp/softfp\libm.a(libm_a-math_err.o)
 .text.__math_check_oflow
                0x00000000       0x40 d:/simplicitystudio-5/developer/toolchains/gnu_arm/12.2.rel1_2023.7/bin/../lib/gcc/arm-none-eabi/12.2.1/thumb/v7e-m+fp/softfp\libm.a(libm_a-math_err.o)
 .text          0x00000000        0x0 d:/simplicitystudio-5/developer/toolchains/gnu_arm/12.2.rel1_2023.7/bin/../lib/gcc/arm-none-eabi/12.2.1/thumb/v7e-m+fp/softfp\libm.a(libm_a-e_sqrt.o)
 .data          0x00000000        0x0 d:/simplicitystudio-5/developer/toolchains/gnu_arm/12.2.rel1_2023.7/bin/../lib/gcc/arm-none-eabi/12.2.1/thumb/v7e-m+fp/softfp\libm.a(libm_a-e_sqrt.o)
 .bss           0x00000000        0x0 d:/simplicitystudio-5/developer/toolchains/gnu_arm/12.2.rel1_2023.7/bin/../lib/gcc/arm-none-eabi/12.2.1/thumb/v7e-m+fp/softfp\libm.a(libm_a-e_sqrt.o)
 .data          0x00000000        0x0 d:/simplicitystudio-5/developer/toolchains/gnu_arm/12.2.rel1_2023.7/bin/../lib/gcc/arm-none-eabi/12.2.1/thumb/v7e-m+fp/softfp\libgcc.a(_arm_muldivdf3.o)
 .bss           0x00000000        0x0 d:/simplicitystudio-5/developer/toolchains/gnu_arm/12.2.rel1_2023.7/bin/../lib/gcc/arm-none-eabi/12.2.1/thumb/v7e-m+fp/softfp\libgcc.a(_arm_muldivdf3.o)
 .data          0x00000000        0x0 d:/simplicitystudio-5/developer/toolchains/gnu_arm/12.2.rel1_2023.7/bin/../lib/gcc/arm-none-eabi/12.2.1/thumb/v7e-m+fp/softfp\libgcc.a(_arm_cmpdf2.o)
 .bss           0x00000000        0x0 d:/simplicitystudio-5/developer/toolchains/gnu_arm/12.2.rel1_2023.7/bin/../lib/gcc/arm-none-eabi/12.2.1/thumb/v7e-m+fp/softfp\libgcc.a(_arm_cmpdf2.o)
 .data          0x00000000        0x0 d:/simplicitystudio-5/developer/toolchains/gnu_arm/12.2.rel1_2023.7/bin/../lib/gcc/arm-none-eabi/12.2.1/thumb/v7e-m+fp/softfp\libgcc.a(_arm_unorddf2.o)
 .bss           0x00000000        0x0 d:/simplicitystudio-5/developer/toolchains/gnu_arm/12.2.rel1_2023.7/bin/../lib/gcc/arm-none-eabi/12.2.1/thumb/v7e-m+fp/softfp\libgcc.a(_arm_unorddf2.o)
 .text          0x00000000        0x0 d:/simplicitystudio-5/developer/toolchains/gnu_arm/12.2.rel1_2023.7/bin/../lib/gcc/arm-none-eabi/12.2.1/thumb/v7e-m+fp/softfp/crtend.o
 .data          0x00000000        0x0 d:/simplicitystudio-5/developer/toolchains/gnu_arm/12.2.rel1_2023.7/bin/../lib/gcc/arm-none-eabi/12.2.1/thumb/v7e-m+fp/softfp/crtend.o
 .bss           0x00000000        0x0 d:/simplicitystudio-5/developer/toolchains/gnu_arm/12.2.rel1_2023.7/bin/../lib/gcc/arm-none-eabi/12.2.1/thumb/v7e-m+fp/softfp/crtend.o
 .rodata.all_implied_fbits
                0x00000000       0x24 d:/simplicitystudio-5/developer/toolchains/gnu_arm/12.2.rel1_2023.7/bin/../lib/gcc/arm-none-eabi/12.2.1/thumb/v7e-m+fp/softfp/crtend.o
 .eh_frame      0x00000000        0x4 d:/simplicitystudio-5/developer/toolchains/gnu_arm/12.2.rel1_2023.7/bin/../lib/gcc/arm-none-eabi/12.2.1/thumb/v7e-m+fp/softfp/crtend.o
 .text          0x00000000        0x0 d:/simplicitystudio-5/developer/toolchains/gnu_arm/12.2.rel1_2023.7/bin/../lib/gcc/arm-none-eabi/12.2.1/thumb/v7e-m+fp/softfp/crtn.o
 .data          0x00000000        0x0 d:/simplicitystudio-5/developer/toolchains/gnu_arm/12.2.rel1_2023.7/bin/../lib/gcc/arm-none-eabi/12.2.1/thumb/v7e-m+fp/softfp/crtn.o
 .bss           0x00000000        0x0 d:/simplicitystudio-5/developer/toolchains/gnu_arm/12.2.rel1_2023.7/bin/../lib/gcc/arm-none-eabi/12.2.1/thumb/v7e-m+fp/softfp/crtn.o

Memory Configuration

Name             Origin             Length             Attributes
FLASH            0x00000000         0x00180000         xr
RAM              0x20000000         0x0007d000         xrw
*default*        0x00000000         0xffffffff

Linker script and memory map

LOAD d:/simplicitystudio-5/developer/toolchains/gnu_arm/12.2.rel1_2023.7/bin/../lib/gcc/arm-none-eabi/12.2.1/thumb/v7e-m+fp/softfp/crti.o
LOAD d:/simplicitystudio-5/developer/toolchains/gnu_arm/12.2.rel1_2023.7/bin/../lib/gcc/arm-none-eabi/12.2.1/thumb/v7e-m+fp/softfp/crtbegin.o
LOAD d:/simplicitystudio-5/developer/toolchains/gnu_arm/12.2.rel1_2023.7/bin/../lib/gcc/arm-none-eabi/12.2.1/thumb/v7e-m+fp/softfp/crt0.o
START GROUP
LOAD ./app.o
LOAD ./main.o
LOAD ./nv_optical_flow.o
LOAD ./nv_usart.o
LOAD ./autogen/sl_board_default_init.o
LOAD ./autogen/sl_device_init_clocks.o
LOAD ./autogen/sl_event_handler.o
LOAD ./gecko_sdk_4.4.6/hardware/board/src/sl_board_control_gpio.o
LOAD ./gecko_sdk_4.4.6/hardware/board/src/sl_board_init.o
LOAD ./gecko_sdk_4.4.6/hardware/driver/configuration_over_swo/src/sl_cos.o
LOAD ./gecko_sdk_4.4.6/hardware/driver/mx25_flash_shutdown/src/sl_mx25_flash_shutdown_usart/sl_mx25_flash_shutdown.o
LOAD ./gecko_sdk_4.4.6/platform/Device/SiliconLabs/EFR32MG12P/Source/startup_efr32mg12p.o
LOAD ./gecko_sdk_4.4.6/platform/Device/SiliconLabs/EFR32MG12P/Source/system_efr32mg12p.o
LOAD ./gecko_sdk_4.4.6/platform/common/src/sl_assert.o
LOAD ./gecko_sdk_4.4.6/platform/common/src/sl_syscalls.o
LOAD ./gecko_sdk_4.4.6/platform/common/toolchain/src/sl_memory.o
LOAD ./gecko_sdk_4.4.6/platform/driver/debug/src/sl_debug_swo.o
LOAD ./gecko_sdk_4.4.6/platform/emlib/src/em_cmu.o
LOAD ./gecko_sdk_4.4.6/platform/emlib/src/em_core.o
LOAD ./gecko_sdk_4.4.6/platform/emlib/src/em_emu.o
LOAD ./gecko_sdk_4.4.6/platform/emlib/src/em_gpio.o
LOAD ./gecko_sdk_4.4.6/platform/emlib/src/em_msc.o
LOAD ./gecko_sdk_4.4.6/platform/emlib/src/em_rtcc.o
LOAD ./gecko_sdk_4.4.6/platform/emlib/src/em_system.o
LOAD ./gecko_sdk_4.4.6/platform/emlib/src/em_timer.o
LOAD ./gecko_sdk_4.4.6/platform/emlib/src/em_usart.o
LOAD ./gecko_sdk_4.4.6/platform/service/device_init/src/sl_device_init_dcdc_s1.o
LOAD ./gecko_sdk_4.4.6/platform/service/device_init/src/sl_device_init_emu_s1.o
LOAD ./gecko_sdk_4.4.6/platform/service/device_init/src/sl_device_init_hfxo_s1.o
LOAD ./gecko_sdk_4.4.6/platform/service/device_init/src/sl_device_init_lfxo_s1.o
LOAD ./gecko_sdk_4.4.6/platform/service/device_init/src/sl_device_init_nvic.o
LOAD ./gecko_sdk_4.4.6/platform/service/sleeptimer/src/sl_sleeptimer.o
LOAD ./gecko_sdk_4.4.6/platform/service/sleeptimer/src/sl_sleeptimer_hal_rtcc.o
LOAD ./gecko_sdk_4.4.6/platform/service/sleeptimer/src/sl_sleeptimer_hal_timer.o
LOAD ./gecko_sdk_4.4.6/platform/service/system/src/sl_system_init.o
LOAD ./gecko_sdk_4.4.6/platform/service/system/src/sl_system_process_action.o
LOAD ./gecko_sdk_4.4.6/platform/service/udelay/src/sl_udelay.o
LOAD ./gecko_sdk_4.4.6/platform/service/udelay/src/sl_udelay_armv6m_gcc.o
LOAD d:/simplicitystudio-5/developer/toolchains/gnu_arm/12.2.rel1_2023.7/bin/../lib/gcc/arm-none-eabi/12.2.1/thumb/v7e-m+fp/softfp\libgcc.a
LOAD d:/simplicitystudio-5/developer/toolchains/gnu_arm/12.2.rel1_2023.7/bin/../lib/gcc/arm-none-eabi/12.2.1/thumb/v7e-m+fp/softfp\libc_nano.a
LOAD d:/simplicitystudio-5/developer/toolchains/gnu_arm/12.2.rel1_2023.7/bin/../lib/gcc/arm-none-eabi/12.2.1/thumb/v7e-m+fp/softfp\libm.a
LOAD d:/simplicitystudio-5/developer/toolchains/gnu_arm/12.2.rel1_2023.7/bin/../lib/gcc/arm-none-eabi/12.2.1/thumb/v7e-m+fp/softfp\libnosys.a
END GROUP
START GROUP
LOAD d:/simplicitystudio-5/developer/toolchains/gnu_arm/12.2.rel1_2023.7/bin/../lib/gcc/arm-none-eabi/12.2.1/thumb/v7e-m+fp/softfp\libgcc.a
LOAD d:/simplicitystudio-5/developer/toolchains/gnu_arm/12.2.rel1_2023.7/bin/../lib/gcc/arm-none-eabi/12.2.1/thumb/v7e-m+fp/softfp\libc_nano.a
LOAD d:/simplicitystudio-5/developer/toolchains/gnu_arm/12.2.rel1_2023.7/bin/../lib/gcc/arm-none-eabi/12.2.1/thumb/v7e-m+fp/softfp\libnosys.a
END GROUP
START GROUP
LOAD d:/simplicitystudio-5/developer/toolchains/gnu_arm/12.2.rel1_2023.7/bin/../lib/gcc/arm-none-eabi/12.2.1/thumb/v7e-m+fp/softfp\libgcc.a
LOAD d:/simplicitystudio-5/developer/toolchains/gnu_arm/12.2.rel1_2023.7/bin/../lib/gcc/arm-none-eabi/12.2.1/thumb/v7e-m+fp/softfp\libg_nano.a
LOAD d:/simplicitystudio-5/developer/toolchains/gnu_arm/12.2.rel1_2023.7/bin/../lib/gcc/arm-none-eabi/12.2.1/thumb/v7e-m+fp/softfp\libc_nano.a
END GROUP
START GROUP
LOAD d:/simplicitystudio-5/developer/toolchains/gnu_arm/12.2.rel1_2023.7/bin/../lib/gcc/arm-none-eabi/12.2.1/thumb/v7e-m+fp/softfp\libgcc.a
LOAD d:/simplicitystudio-5/developer/toolchains/gnu_arm/12.2.rel1_2023.7/bin/../lib/gcc/arm-none-eabi/12.2.1/thumb/v7e-m+fp/softfp\libc_nano.a
END GROUP
LOAD d:/simplicitystudio-5/developer/toolchains/gnu_arm/12.2.rel1_2023.7/bin/../lib/gcc/arm-none-eabi/12.2.1/thumb/v7e-m+fp/softfp/crtend.o
LOAD d:/simplicitystudio-5/developer/toolchains/gnu_arm/12.2.rel1_2023.7/bin/../lib/gcc/arm-none-eabi/12.2.1/thumb/v7e-m+fp/softfp/crtn.o

.text           0x00000000    0x103b0
                0x00000000                linker_vectors_begin = .
 *(.vectors)
 .vectors       0x00000000      0x10c ./gecko_sdk_4.4.6/platform/Device/SiliconLabs/EFR32MG12P/Source/startup_efr32mg12p.o
                0x00000000                __Vectors
                0x0000010c                linker_vectors_end = .
                0x0000010c                __Vectors_End = .
                0x0000010c                __Vectors_Size = (__Vectors_End - __Vectors)
                0x0000010c                linker_code_begin = .
 *(SORT_BY_ALIGNMENT(.text*))
 *fill*         0x0000010c        0x4 
 .text          0x00000110        0x8 ./gecko_sdk_4.4.6/platform/service/udelay/src/sl_udelay_armv6m_gcc.o
                0x00000110                sli_delay_loop
 *fill*         0x00000118        0x8 
 .text          0x00000120       0xa0 d:/simplicitystudio-5/developer/toolchains/gnu_arm/12.2.rel1_2023.7/bin/../lib/gcc/arm-none-eabi/12.2.1/thumb/v7e-m+fp/softfp\libc_nano.a(libc_a-memchr.o)
                0x00000120                memchr
 .text.scalbn   0x000001c0       0xf4 d:/simplicitystudio-5/developer/toolchains/gnu_arm/12.2.rel1_2023.7/bin/../lib/gcc/arm-none-eabi/12.2.1/thumb/v7e-m+fp/softfp\libc_nano.a(libm_a-s_scalbn.o)
                0x000001c0                scalbn
 *fill*         0x000002b4        0x4 
 .text.__ieee754_pow
                0x000002b8      0xba4 d:/simplicitystudio-5/developer/toolchains/gnu_arm/12.2.rel1_2023.7/bin/../lib/gcc/arm-none-eabi/12.2.1/thumb/v7e-m+fp/softfp\libm.a(libm_a-e_pow.o)
                0x000002b8                __ieee754_pow
 .text.deregister_tm_clones
                0x00000e5c       0x1c d:/simplicitystudio-5/developer/toolchains/gnu_arm/12.2.rel1_2023.7/bin/../lib/gcc/arm-none-eabi/12.2.1/thumb/v7e-m+fp/softfp/crtbegin.o
 .text.register_tm_clones
                0x00000e78       0x24 d:/simplicitystudio-5/developer/toolchains/gnu_arm/12.2.rel1_2023.7/bin/../lib/gcc/arm-none-eabi/12.2.1/thumb/v7e-m+fp/softfp/crtbegin.o
 .text.__do_global_dtors_aux
                0x00000e9c       0x28 d:/simplicitystudio-5/developer/toolchains/gnu_arm/12.2.rel1_2023.7/bin/../lib/gcc/arm-none-eabi/12.2.1/thumb/v7e-m+fp/softfp/crtbegin.o
 .text.frame_dummy
                0x00000ec4       0x24 d:/simplicitystudio-5/developer/toolchains/gnu_arm/12.2.rel1_2023.7/bin/../lib/gcc/arm-none-eabi/12.2.1/thumb/v7e-m+fp/softfp/crtbegin.o
 .text          0x00000ee8       0x7c d:/simplicitystudio-5/developer/toolchains/gnu_arm/12.2.rel1_2023.7/bin/../lib/gcc/arm-none-eabi/12.2.1/thumb/v7e-m+fp/softfp/crt0.o
                0x00000ee8                _stack_init
                0x00000ef0                _start
                0x00000ef0                _mainCRTStartup
 .text.stbi__idct_block
                0x00000f64      0x2d0 ./app.o
 .text.stbi__YCbCr_to_RGB_row
                0x00001234       0xac ./app.o
 .text.stbi__hdr_convert
                0x000012e0       0xc0 ./app.o
 .text.rx_callback
                0x000013a0        0xc ./app.o
 .text.stbi__mul2shorts_valid
                0x000013ac       0x40 ./app.o
 .text.stbi__extend_receive
                0x000013ec       0x5c ./app.o
 .text.stbi__jpeg_get_bits
                0x00001448       0x48 ./app.o
 .text.stbi__jpeg_huff_decode
                0x00001490       0xdc ./app.o
 .text.stbi__hdr_test
                0x0000156c       0x40 ./app.o
 .text.stbi__create_png_alpha_expand8
                0x000015ac       0x74 ./app.o
 .text.stbi__shiftsigned
                0x00001620       0x60 ./app.o
 .text.stbi__pnm_getinteger
                0x00001680       0x58 ./app.o
 .text.stbi__pnm_info
                0x000016d8       0xec ./app.o
 .text.stbi__gif_header
                0x000017c4       0xe8 ./app.o
 .text.stbi__readval
                0x000018ac       0x4c ./app.o
 .text.stbi__check_png_header
                0x000018f8       0x3c ./app.o
 .text.stbi__zexpand
                0x00001934       0x5c ./app.o
 .text.stbi__zbuild_huffman
                0x00001990      0x154 ./app.o
 .text.stbi__compute_huffman_codes
                0x00001ae4      0x128 ./app.o
 .text.stbi__parse_zlib
                0x00001c0c      0x2b0 ./app.o
 .text.stbi__jpeg_decode_block
                0x00001ebc      0x17c ./app.o
 .text.stbi__build_huffman
                0x00002038       0xf8 ./app.o
 .text.stbi__process_marker
                0x00002130      0x320 ./app.o
 .text.stbi__gif_load_next.constprop.0
                0x00002450      0x470 ./app.o
 .text.stbi__decode_jpeg_header
                0x000028c0      0x380 ./app.o
 .text.stbi__hdr_load.constprop.0
                0x00002c40      0x314 ./app.o
 .text.stbi__bmp_parse_header.constprop.0
                0x00002f54      0x24c ./app.o
 .text.stbi__convert_format16
                0x000031a0      0x440 ./app.o
 .text.stbi__convert_format
                0x000035e0      0x43c ./app.o
 .text.stbi__bmp_load.constprop.0
                0x00003a1c      0x630 ./app.o
 .text.stbi__jpeg_decode_block_prog_dc
                0x0000404c       0xf0 ./app.o
 .text.stbi__create_png_image_raw
                0x0000413c      0x45c ./app.o
 .text.stbi__parse_png_file
                0x00004598      0x9e0 ./app.o
 .text.stbi__load_main
                0x00004f78     0x1e7c ./app.o
 .text.stbi__load_and_postprocess_8bit
                0x00006df4       0xdc ./app.o
 .text.app_init
                0x00006ed0      0x260 ./app.o
                0x00006ed0                app_init
 .text.lucas_kanade_at_level
                0x00007130      0x1b4 ./nv_optical_flow.o
                0x00007130                lucas_kanade_at_level
 .text.usart_init
                0x000072e4       0x94 ./nv_usart.o
                0x000072e4                usart_init
 .text.usart_set_rx_callback
                0x00007378        0xc ./nv_usart.o
                0x00007378                usart_set_rx_callback
 .text.usart_send
                0x00007384       0x14 ./nv_usart.o
                0x00007384                usart_send
 .text.USART2_RX_IRQHandler
                0x00007398       0x18 ./nv_usart.o
                0x00007398                USART2_RX_IRQHandler
 .text.USART2_TX_IRQHandler
                0x000073b0       0x20 ./nv_usart.o
                0x000073b0                USART2_TX_IRQHandler
 .text.sl_device_init_clocks
                0x000073d0       0x48 ./autogen/sl_device_init_clocks.o
                0x000073d0                sl_device_init_clocks
 .text.sl_platform_init
                0x00007418       0x94 ./autogen/sl_event_handler.o
                0x00007418                sl_platform_init
 .text.sl_board_init
                0x000074ac       0x1c ./gecko_sdk_4.4.6/hardware/board/src/sl_board_init.o
                0x000074ac                sl_board_init
 .text.sl_board_preinit
                0x000074c8        0xc ./gecko_sdk_4.4.6/hardware/board/src/sl_board_init.o
                0x000074c8                sl_board_preinit
 .text.cs_high  0x000074d4        0xc ./gecko_sdk_4.4.6/hardware/driver/mx25_flash_shutdown/src/sl_mx25_flash_shutdown_usart/sl_mx25_flash_shutdown.o
 .text.cs_low   0x000074e0        0xc ./gecko_sdk_4.4.6/hardware/driver/mx25_flash_shutdown/src/sl_mx25_flash_shutdown_usart/sl_mx25_flash_shutdown.o
 .text.sl_mx25_flash_shutdown
                0x000074ec       0xfc ./gecko_sdk_4.4.6/hardware/driver/mx25_flash_shutdown/src/sl_mx25_flash_shutdown_usart/sl_mx25_flash_shutdown.o
                0x000074ec                sl_mx25_flash_shutdown
 .text.Reset_Handler
                0x000075e8       0x60 ./gecko_sdk_4.4.6/platform/Device/SiliconLabs/EFR32MG12P/Source/startup_efr32mg12p.o
                0x000075e8                Reset_Handler
 .text.SystemMaxCoreClockGet
                0x00007648        0x8 ./gecko_sdk_4.4.6/platform/Device/SiliconLabs/EFR32MG12P/Source/system_efr32mg12p.o
                0x00007648                SystemMaxCoreClockGet
 .text.SystemHFClockGet
                0x00007650       0x54 ./gecko_sdk_4.4.6/platform/Device/SiliconLabs/EFR32MG12P/Source/system_efr32mg12p.o
                0x00007650                SystemHFClockGet
 .text.SystemCoreClockGet
                0x000076a4       0x24 ./gecko_sdk_4.4.6/platform/Device/SiliconLabs/EFR32MG12P/Source/system_efr32mg12p.o
                0x000076a4                SystemCoreClockGet
 .text.SystemHFXOClockGet
                0x000076c8        0xc ./gecko_sdk_4.4.6/platform/Device/SiliconLabs/EFR32MG12P/Source/system_efr32mg12p.o
                0x000076c8                SystemHFXOClockGet
 .text.SystemHFXOClockSet
                0x000076d4       0x20 ./gecko_sdk_4.4.6/platform/Device/SiliconLabs/EFR32MG12P/Source/system_efr32mg12p.o
                0x000076d4                SystemHFXOClockSet
 .text.SystemInit
                0x000076f4       0x1c ./gecko_sdk_4.4.6/platform/Device/SiliconLabs/EFR32MG12P/Source/system_efr32mg12p.o
                0x000076f4                SystemInit
 .text.SystemLFXOClockGet
                0x00007710        0xc ./gecko_sdk_4.4.6/platform/Device/SiliconLabs/EFR32MG12P/Source/system_efr32mg12p.o
                0x00007710                SystemLFXOClockGet
 .text._sbrk    0x0000771c       0x20 ./gecko_sdk_4.4.6/platform/common/toolchain/src/sl_memory.o
                0x0000771c                _sbrk
 .text.sl_debug_swo_init
                0x0000773c       0xcc ./gecko_sdk_4.4.6/platform/driver/debug/src/sl_debug_swo.o
                0x0000773c                sl_debug_swo_init
 .text.setHfLeConfig
                0x00007808       0x44 ./gecko_sdk_4.4.6/platform/emlib/src/em_cmu.o
 .text.flashWaitStateControl
                0x0000784c       0x54 ./gecko_sdk_4.4.6/platform/emlib/src/em_cmu.o
 .text.flashWaitStateMax
                0x000078a0       0x24 ./gecko_sdk_4.4.6/platform/emlib/src/em_cmu.o
 .text.EMU_VScaleWait
                0x000078c4       0x1c ./gecko_sdk_4.4.6/platform/emlib/src/em_cmu.o
 .text.EMU_VScaleGet
                0x000078e0       0x14 ./gecko_sdk_4.4.6/platform/emlib/src/em_cmu.o
 .text.syncReg  0x000078f4       0x18 ./gecko_sdk_4.4.6/platform/emlib/src/em_cmu.o
 .text.CMU_UpdateWaitStates
                0x0000790c       0x20 ./gecko_sdk_4.4.6/platform/emlib/src/em_cmu.o
                0x0000790c                CMU_UpdateWaitStates
 .text.CMU_ClockEnable
                0x0000792c       0x9c ./gecko_sdk_4.4.6/platform/emlib/src/em_cmu.o
                0x0000792c                CMU_ClockEnable
 .text.CMU_ClockPrescGet
                0x000079c8       0xec ./gecko_sdk_4.4.6/platform/emlib/src/em_cmu.o
                0x000079c8                CMU_ClockPrescGet
 .text.CMU_ClockSelectGet
                0x00007ab4       0xd8 ./gecko_sdk_4.4.6/platform/emlib/src/em_cmu.o
                0x00007ab4                CMU_ClockSelectGet
 .text.lfClkGet
                0x00007b8c       0xb8 ./gecko_sdk_4.4.6/platform/emlib/src/em_cmu.o
 .text.CMU_ClockFreqGet
                0x00007c44      0x1d0 ./gecko_sdk_4.4.6/platform/emlib/src/em_cmu.o
                0x00007c44                CMU_ClockFreqGet
 .text.CMU_LFXOPrecisionSet
                0x00007e14        0xc ./gecko_sdk_4.4.6/platform/emlib/src/em_cmu.o
                0x00007e14                CMU_LFXOPrecisionSet
 .text.CMU_HFXOPrecisionSet
                0x00007e20        0xc ./gecko_sdk_4.4.6/platform/emlib/src/em_cmu.o
                0x00007e20                CMU_HFXOPrecisionSet
 .text.CMU_OscillatorTuningSet
                0x00007e2c      0x120 ./gecko_sdk_4.4.6/platform/emlib/src/em_cmu.o
                0x00007e2c                CMU_OscillatorTuningSet
 .text.CMU_OscillatorTuningWait
                0x00007f4c       0x64 ./gecko_sdk_4.4.6/platform/emlib/src/em_cmu.o
                0x00007f4c                CMU_OscillatorTuningWait
 .text.CMU_OscillatorTuningOptimize
                0x00007fb0       0x38 ./gecko_sdk_4.4.6/platform/emlib/src/em_cmu.o
                0x00007fb0                CMU_OscillatorTuningOptimize
 .text.CMU_OscillatorEnable
                0x00007fe8      0x120 ./gecko_sdk_4.4.6/platform/emlib/src/em_cmu.o
                0x00007fe8                CMU_OscillatorEnable
 .text.sli_em_cmu_HFClockSelectHFXO
                0x00008108       0x60 ./gecko_sdk_4.4.6/platform/emlib/src/em_cmu.o
                0x00008108                sli_em_cmu_HFClockSelectHFXO
 .text.CMU_HFXOInit
                0x00008168       0xa0 ./gecko_sdk_4.4.6/platform/emlib/src/em_cmu.o
                0x00008168                CMU_HFXOInit
 .text.CMU_LFXOInit
                0x00008208       0x58 ./gecko_sdk_4.4.6/platform/emlib/src/em_cmu.o
                0x00008208                CMU_LFXOInit
 .text.EMU_LDOStatusGet
                0x00008260       0x14 ./gecko_sdk_4.4.6/platform/emlib/src/em_emu.o
 .text.lpGetDevinfoVrefLowHigh
                0x00008274       0x74 ./gecko_sdk_4.4.6/platform/emlib/src/em_emu.o
 .text.EMU_VScaleWait
                0x000082e8       0x18 ./gecko_sdk_4.4.6/platform/emlib/src/em_emu.o
 .text.EMU_EM4Init
                0x00008300       0x40 ./gecko_sdk_4.4.6/platform/emlib/src/em_emu.o
                0x00008300                EMU_EM4Init
 .text.EMU_VScaleEM01
                0x00008340       0x98 ./gecko_sdk_4.4.6/platform/emlib/src/em_emu.o
                0x00008340                EMU_VScaleEM01
 .text.EMU_VScaleEM01ByClock
                0x000083d8       0x4c ./gecko_sdk_4.4.6/platform/emlib/src/em_emu.o
                0x000083d8                EMU_VScaleEM01ByClock
 .text.EMU_DCDCModeSet
                0x00008424       0x98 ./gecko_sdk_4.4.6/platform/emlib/src/em_emu.o
                0x00008424                EMU_DCDCModeSet
 .text.EMU_DCDCOutputVoltageSet
                0x000084bc      0x1f0 ./gecko_sdk_4.4.6/platform/emlib/src/em_emu.o
                0x000084bc                EMU_DCDCOutputVoltageSet
 .text.EMU_DCDCOptimizeSlice
                0x000086ac       0xdc ./gecko_sdk_4.4.6/platform/emlib/src/em_emu.o
                0x000086ac                EMU_DCDCOptimizeSlice
 .text.EMU_DCDCLnRcoBandSet
                0x00008788       0x44 ./gecko_sdk_4.4.6/platform/emlib/src/em_emu.o
                0x00008788                EMU_DCDCLnRcoBandSet
 .text.EMU_DCDCInit
                0x000087cc      0x188 ./gecko_sdk_4.4.6/platform/emlib/src/em_emu.o
                0x000087cc                EMU_DCDCInit
 .text.GPIO_PinOutSet
                0x00008954       0x40 ./gecko_sdk_4.4.6/platform/emlib/src/em_gpio.o
 .text.GPIO_PinOutClear
                0x00008994       0x40 ./gecko_sdk_4.4.6/platform/emlib/src/em_gpio.o
 .text.GPIO_DbgLocationSet
                0x000089d4       0x2c ./gecko_sdk_4.4.6/platform/emlib/src/em_gpio.o
                0x000089d4                GPIO_DbgLocationSet
 .text.GPIO_PinModeSet
                0x00008a00       0x90 ./gecko_sdk_4.4.6/platform/emlib/src/em_gpio.o
                0x00008a00                GPIO_PinModeSet
 .text.RTCC_ChannelInit
                0x00008a90       0x58 ./gecko_sdk_4.4.6/platform/emlib/src/em_rtcc.o
                0x00008a90                RTCC_ChannelInit
 .text.RTCC_Enable
                0x00008ae8        0xc ./gecko_sdk_4.4.6/platform/emlib/src/em_rtcc.o
                0x00008ae8                RTCC_Enable
 .text.RTCC_Init
                0x00008af4       0x3c ./gecko_sdk_4.4.6/platform/emlib/src/em_rtcc.o
                0x00008af4                RTCC_Init
 .text.SYSTEM_GetProdRev
                0x00008b30       0x10 ./gecko_sdk_4.4.6/platform/emlib/src/em_system.o
                0x00008b30                SYSTEM_GetProdRev
 .text.USART_BaudrateAsyncSet
                0x00008b40       0xe4 ./gecko_sdk_4.4.6/platform/emlib/src/em_usart.o
                0x00008b40                USART_BaudrateAsyncSet
 .text.USART_BaudrateSyncSet
                0x00008c24       0x4c ./gecko_sdk_4.4.6/platform/emlib/src/em_usart.o
                0x00008c24                USART_BaudrateSyncSet
 .text.USART_Reset
                0x00008c70       0x8c ./gecko_sdk_4.4.6/platform/emlib/src/em_usart.o
                0x00008c70                USART_Reset
 .text.USART_InitAsync
                0x00008cfc       0xb0 ./gecko_sdk_4.4.6/platform/emlib/src/em_usart.o
                0x00008cfc                USART_InitAsync
 .text.USART_InitSync
                0x00008dac       0xb0 ./gecko_sdk_4.4.6/platform/emlib/src/em_usart.o
                0x00008dac                USART_InitSync
 .text.sl_device_init_dcdc
                0x00008e5c       0x2c ./gecko_sdk_4.4.6/platform/service/device_init/src/sl_device_init_dcdc_s1.o
                0x00008e5c                sl_device_init_dcdc
 .text.sl_device_init_hfxo
                0x00008e88       0x74 ./gecko_sdk_4.4.6/platform/service/device_init/src/sl_device_init_hfxo_s1.o
                0x00008e88                sl_device_init_hfxo
 .text.sl_device_init_lfxo
                0x00008efc       0x28 ./gecko_sdk_4.4.6/platform/service/device_init/src/sl_device_init_lfxo_s1.o
                0x00008efc                sl_device_init_lfxo
 .text.sl_device_init_nvic
                0x00008f24       0x3c ./gecko_sdk_4.4.6/platform/service/device_init/src/sl_device_init_nvic.o
                0x00008f24                sl_device_init_nvic
 .text.delta_list_insert_timer
                0x00008f60       0x40 ./gecko_sdk_4.4.6/platform/service/sleeptimer/src/sl_sleeptimer.o
 .text.update_delta_list
                0x00008fa0       0x34 ./gecko_sdk_4.4.6/platform/service/sleeptimer/src/sl_sleeptimer.o
 .text.set_comparator_for_next_timer
                0x00008fd4       0x5c ./gecko_sdk_4.4.6/platform/service/sleeptimer/src/sl_sleeptimer.o
 .text.delta_list_remove_timer
                0x00009030       0x38 ./gecko_sdk_4.4.6/platform/service/sleeptimer/src/sl_sleeptimer.o
 .text.sl_sleeptimer_init
                0x00009068       0x74 ./gecko_sdk_4.4.6/platform/service/sleeptimer/src/sl_sleeptimer.o
                0x00009068                sl_sleeptimer_init
 .text.process_timer_irq
                0x000090dc      0x154 ./gecko_sdk_4.4.6/platform/service/sleeptimer/src/sl_sleeptimer.o
                0x000090dc                process_timer_irq
 .text.sleeptimer_hal_init_timer
                0x00009230       0x8c ./gecko_sdk_4.4.6/platform/service/sleeptimer/src/sl_sleeptimer_hal_rtcc.o
                0x00009230                sleeptimer_hal_init_timer
 .text.sleeptimer_hal_get_counter
                0x000092bc        0xc ./gecko_sdk_4.4.6/platform/service/sleeptimer/src/sl_sleeptimer_hal_rtcc.o
                0x000092bc                sleeptimer_hal_get_counter
 .text.sleeptimer_hal_set_compare
                0x000092c8       0x5c ./gecko_sdk_4.4.6/platform/service/sleeptimer/src/sl_sleeptimer_hal_rtcc.o
                0x000092c8                sleeptimer_hal_set_compare
 .text.sleeptimer_hal_enable_int
                0x00009324       0x1c ./gecko_sdk_4.4.6/platform/service/sleeptimer/src/sl_sleeptimer_hal_rtcc.o
                0x00009324                sleeptimer_hal_enable_int
 .text.sleeptimer_hal_disable_int
                0x00009340       0x30 ./gecko_sdk_4.4.6/platform/service/sleeptimer/src/sl_sleeptimer_hal_rtcc.o
                0x00009340                sleeptimer_hal_disable_int
 .text.sleeptimer_hal_set_int
                0x00009370       0x10 ./gecko_sdk_4.4.6/platform/service/sleeptimer/src/sl_sleeptimer_hal_rtcc.o
                0x00009370                sleeptimer_hal_set_int
 .text.RTCC_IRQHandler
                0x00009380       0x30 ./gecko_sdk_4.4.6/platform/service/sleeptimer/src/sl_sleeptimer_hal_rtcc.o
                0x00009380                RTCC_IRQHandler
 .text.sleeptimer_hal_get_timer_frequency
                0x000093b0       0x18 ./gecko_sdk_4.4.6/platform/service/sleeptimer/src/sl_sleeptimer_hal_rtcc.o
                0x000093b0                sleeptimer_hal_get_timer_frequency
 .text.sl_udelay_wait
                0x000093c8       0x54 ./gecko_sdk_4.4.6/platform/service/udelay/src/sl_udelay.o
                0x000093c8                sl_udelay_wait
 .text          0x0000941c      0x378 d:/simplicitystudio-5/developer/toolchains/gnu_arm/12.2.rel1_2023.7/bin/../lib/gcc/arm-none-eabi/12.2.1/thumb/v7e-m+fp/softfp\libgcc.a(_arm_addsubdf3.o)
                0x0000941c                __aeabi_drsub
                0x00009424                __aeabi_dsub
                0x00009424                __subdf3
                0x00009428                __aeabi_dadd
                0x00009428                __adddf3
                0x000096a0                __floatunsidf
                0x000096a0                __aeabi_ui2d
                0x000096c0                __floatsidf
                0x000096c0                __aeabi_i2d
                0x000096e4                __aeabi_f2d
                0x000096e4                __extendsfdf2
                0x00009728                __floatundidf
                0x00009728                __aeabi_ul2d
                0x00009738                __floatdidf
                0x00009738                __aeabi_l2d
 .text          0x00009794       0xa0 d:/simplicitystudio-5/developer/toolchains/gnu_arm/12.2.rel1_2023.7/bin/../lib/gcc/arm-none-eabi/12.2.1/thumb/v7e-m+fp/softfp\libgcc.a(_arm_truncdfsf2.o)
                0x00009794                __truncdfsf2
                0x00009794                __aeabi_d2f
 .text          0x00009834       0x30 d:/simplicitystudio-5/developer/toolchains/gnu_arm/12.2.rel1_2023.7/bin/../lib/gcc/arm-none-eabi/12.2.1/thumb/v7e-m+fp/softfp\libgcc.a(_aeabi_uldivmod.o)
                0x00009834                __aeabi_uldivmod
 .text.__udivmoddi4
                0x00009864      0x2bc d:/simplicitystudio-5/developer/toolchains/gnu_arm/12.2.rel1_2023.7/bin/../lib/gcc/arm-none-eabi/12.2.1/thumb/v7e-m+fp/softfp\libgcc.a(_udivmoddi4.o)
                0x00009864                __udivmoddi4
 .text.__gthread_active_p
                0x00009b20        0x4 d:/simplicitystudio-5/developer/toolchains/gnu_arm/12.2.rel1_2023.7/bin/../lib/gcc/arm-none-eabi/12.2.1/thumb/v7e-m+fp/softfp\libgcc.a(emutls.o)
 .text.emutls_alloc
                0x00009b24       0x58 d:/simplicitystudio-5/developer/toolchains/gnu_arm/12.2.rel1_2023.7/bin/../lib/gcc/arm-none-eabi/12.2.1/thumb/v7e-m+fp/softfp\libgcc.a(emutls.o)
 .text.__emutls_get_address
                0x00009b7c       0x1c d:/simplicitystudio-5/developer/toolchains/gnu_arm/12.2.rel1_2023.7/bin/../lib/gcc/arm-none-eabi/12.2.1/thumb/v7e-m+fp/softfp\libgcc.a(emutls.o)
                0x00009b7c                __emutls_get_address
 .text          0x00009b98        0x4 d:/simplicitystudio-5/developer/toolchains/gnu_arm/12.2.rel1_2023.7/bin/../lib/gcc/arm-none-eabi/12.2.1/thumb/v7e-m+fp/softfp\libgcc.a(_dvmd_tls.o)
                0x00009b98                __aeabi_idiv0
                0x00009b98                __aeabi_ldiv0
 .text.__assert_func
                0x00009b9c       0x3c d:/simplicitystudio-5/developer/toolchains/gnu_arm/12.2.rel1_2023.7/bin/../lib/gcc/arm-none-eabi/12.2.1/thumb/v7e-m+fp/softfp\libc_nano.a(libc_a-assert.o)
                0x00009b9c                __assert_func
 .text.exit     0x00009bd8       0x24 d:/simplicitystudio-5/developer/toolchains/gnu_arm/12.2.rel1_2023.7/bin/../lib/gcc/arm-none-eabi/12.2.1/thumb/v7e-m+fp/softfp\libc_nano.a(libc_a-exit.o)
                0x00009bd8                exit
 .text.malloc   0x00009bfc       0x10 d:/simplicitystudio-5/developer/toolchains/gnu_arm/12.2.rel1_2023.7/bin/../lib/gcc/arm-none-eabi/12.2.1/thumb/v7e-m+fp/softfp\libc_nano.a(libc_a-malloc.o)
                0x00009bfc                malloc
 .text.free     0x00009c0c       0x10 d:/simplicitystudio-5/developer/toolchains/gnu_arm/12.2.rel1_2023.7/bin/../lib/gcc/arm-none-eabi/12.2.1/thumb/v7e-m+fp/softfp\libc_nano.a(libc_a-malloc.o)
                0x00009c0c                free
 .text.sbrk_aligned
                0x00009c1c       0x44 d:/simplicitystudio-5/developer/toolchains/gnu_arm/12.2.rel1_2023.7/bin/../lib/gcc/arm-none-eabi/12.2.1/thumb/v7e-m+fp/softfp\libc_nano.a(libc_a-mallocr.o)
 .text._malloc_r
                0x00009c60       0xf0 d:/simplicitystudio-5/developer/toolchains/gnu_arm/12.2.rel1_2023.7/bin/../lib/gcc/arm-none-eabi/12.2.1/thumb/v7e-m+fp/softfp\libc_nano.a(libc_a-mallocr.o)
                0x00009c60                _malloc_r
 .text.__malloc_lock
                0x00009d50        0xc d:/simplicitystudio-5/developer/toolchains/gnu_arm/12.2.rel1_2023.7/bin/../lib/gcc/arm-none-eabi/12.2.1/thumb/v7e-m+fp/softfp\libc_nano.a(libc_a-mlock.o)
                0x00009d50                __malloc_lock
 .text.__malloc_unlock
                0x00009d5c        0xc d:/simplicitystudio-5/developer/toolchains/gnu_arm/12.2.rel1_2023.7/bin/../lib/gcc/arm-none-eabi/12.2.1/thumb/v7e-m+fp/softfp\libc_nano.a(libc_a-mlock.o)
                0x00009d5c                __malloc_unlock
 .text.realloc  0x00009d68       0x10 d:/simplicitystudio-5/developer/toolchains/gnu_arm/12.2.rel1_2023.7/bin/../lib/gcc/arm-none-eabi/12.2.1/thumb/v7e-m+fp/softfp\libc_nano.a(libc_a-realloc.o)
                0x00009d68                realloc
 .text._strtol_l.constprop.0
                0x00009d78       0xfc d:/simplicitystudio-5/developer/toolchains/gnu_arm/12.2.rel1_2023.7/bin/../lib/gcc/arm-none-eabi/12.2.1/thumb/v7e-m+fp/softfp\libc_nano.a(libc_a-strtol.o)
 .text.strtol   0x00009e74       0x14 d:/simplicitystudio-5/developer/toolchains/gnu_arm/12.2.rel1_2023.7/bin/../lib/gcc/arm-none-eabi/12.2.1/thumb/v7e-m+fp/softfp\libc_nano.a(libc_a-strtol.o)
                0x00009e74                strtol
 .text.std      0x00009e88       0x6c d:/simplicitystudio-5/developer/toolchains/gnu_arm/12.2.rel1_2023.7/bin/../lib/gcc/arm-none-eabi/12.2.1/thumb/v7e-m+fp/softfp\libc_nano.a(libc_a-findfp.o)
 .text.stdio_exit_handler
                0x00009ef4       0x18 d:/simplicitystudio-5/developer/toolchains/gnu_arm/12.2.rel1_2023.7/bin/../lib/gcc/arm-none-eabi/12.2.1/thumb/v7e-m+fp/softfp\libc_nano.a(libc_a-findfp.o)
 .text.cleanup_stdio
                0x00009f0c       0x40 d:/simplicitystudio-5/developer/toolchains/gnu_arm/12.2.rel1_2023.7/bin/../lib/gcc/arm-none-eabi/12.2.1/thumb/v7e-m+fp/softfp\libc_nano.a(libc_a-findfp.o)
 .text.global_stdio_init.part.0
                0x00009f4c       0x3c d:/simplicitystudio-5/developer/toolchains/gnu_arm/12.2.rel1_2023.7/bin/../lib/gcc/arm-none-eabi/12.2.1/thumb/v7e-m+fp/softfp\libc_nano.a(libc_a-findfp.o)
 .text.__sfp_lock_acquire
                0x00009f88        0xc d:/simplicitystudio-5/developer/toolchains/gnu_arm/12.2.rel1_2023.7/bin/../lib/gcc/arm-none-eabi/12.2.1/thumb/v7e-m+fp/softfp\libc_nano.a(libc_a-findfp.o)
                0x00009f88                __sfp_lock_acquire
 .text.__sfp_lock_release
                0x00009f94        0xc d:/simplicitystudio-5/developer/toolchains/gnu_arm/12.2.rel1_2023.7/bin/../lib/gcc/arm-none-eabi/12.2.1/thumb/v7e-m+fp/softfp\libc_nano.a(libc_a-findfp.o)
                0x00009f94                __sfp_lock_release
 .text.__sinit  0x00009fa0       0x30 d:/simplicitystudio-5/developer/toolchains/gnu_arm/12.2.rel1_2023.7/bin/../lib/gcc/arm-none-eabi/12.2.1/thumb/v7e-m+fp/softfp\libc_nano.a(libc_a-findfp.o)
                0x00009fa0                __sinit
 .text.fprintf  0x00009fd0       0x24 d:/simplicitystudio-5/developer/toolchains/gnu_arm/12.2.rel1_2023.7/bin/../lib/gcc/arm-none-eabi/12.2.1/thumb/v7e-m+fp/softfp\libc_nano.a(libc_a-fprintf.o)
                0x00009fd0                fiprintf
                0x00009fd0                fprintf
 .text.vsnprintf
                0x00009ff4       0x1c d:/simplicitystudio-5/developer/toolchains/gnu_arm/12.2.rel1_2023.7/bin/../lib/gcc/arm-none-eabi/12.2.1/thumb/v7e-m+fp/softfp\libc_nano.a(libc_a-vsnprintf.o)
                0x00009ff4                vsniprintf
                0x00009ff4                vsnprintf
 .text._close_r
                0x0000a010       0x20 d:/simplicitystudio-5/developer/toolchains/gnu_arm/12.2.rel1_2023.7/bin/../lib/gcc/arm-none-eabi/12.2.1/thumb/v7e-m+fp/softfp\libc_nano.a(libc_a-closer.o)
                0x0000a010                _close_r
 .text._lseek_r
                0x0000a030       0x24 d:/simplicitystudio-5/developer/toolchains/gnu_arm/12.2.rel1_2023.7/bin/../lib/gcc/arm-none-eabi/12.2.1/thumb/v7e-m+fp/softfp\libc_nano.a(libc_a-lseekr.o)
                0x0000a030                _lseek_r
 .text._read_r  0x0000a054       0x24 d:/simplicitystudio-5/developer/toolchains/gnu_arm/12.2.rel1_2023.7/bin/../lib/gcc/arm-none-eabi/12.2.1/thumb/v7e-m+fp/softfp\libc_nano.a(libc_a-readr.o)
                0x0000a054                _read_r
 .text._sbrk_r  0x0000a078       0x20 d:/simplicitystudio-5/developer/toolchains/gnu_arm/12.2.rel1_2023.7/bin/../lib/gcc/arm-none-eabi/12.2.1/thumb/v7e-m+fp/softfp\libc_nano.a(libc_a-sbrkr.o)
                0x0000a078                _sbrk_r
 .text._write_r
                0x0000a098       0x24 d:/simplicitystudio-5/developer/toolchains/gnu_arm/12.2.rel1_2023.7/bin/../lib/gcc/arm-none-eabi/12.2.1/thumb/v7e-m+fp/softfp\libc_nano.a(libc_a-writer.o)
                0x0000a098                _write_r
 .text.__errno  0x0000a0bc        0xc d:/simplicitystudio-5/developer/toolchains/gnu_arm/12.2.rel1_2023.7/bin/../lib/gcc/arm-none-eabi/12.2.1/thumb/v7e-m+fp/softfp\libc_nano.a(libc_a-errno.o)
                0x0000a0bc                __errno
 .text.__libc_init_array
                0x0000a0c8       0x48 d:/simplicitystudio-5/developer/toolchains/gnu_arm/12.2.rel1_2023.7/bin/../lib/gcc/arm-none-eabi/12.2.1/thumb/v7e-m+fp/softfp\libc_nano.a(libc_a-init.o)
                0x0000a0c8                __libc_init_array
 .text._free_r  0x0000a110       0x94 d:/simplicitystudio-5/developer/toolchains/gnu_arm/12.2.rel1_2023.7/bin/../lib/gcc/arm-none-eabi/12.2.1/thumb/v7e-m+fp/softfp\libc_nano.a(libc_a-freer.o)
                0x0000a110                _free_r
 .text._svfprintf_r
                0x0000a1a4      0x1f8 d:/simplicitystudio-5/developer/toolchains/gnu_arm/12.2.rel1_2023.7/bin/../lib/gcc/arm-none-eabi/12.2.1/thumb/v7e-m+fp/softfp\libc_nano.a(libc_a-nano-svfprintf.o)
                0x0000a1a4                _svfiprintf_r
                0x0000a1a4                _svfprintf_r
 .text._vfprintf_r
                0x0000a39c      0x230 d:/simplicitystudio-5/developer/toolchains/gnu_arm/12.2.rel1_2023.7/bin/../lib/gcc/arm-none-eabi/12.2.1/thumb/v7e-m+fp/softfp\libc_nano.a(libc_a-nano-vfprintf.o)
                0x0000a39c                _vfprintf_r
                0x0000a39c                _vfiprintf_r
 .text._printf_i
                0x0000a5cc      0x258 d:/simplicitystudio-5/developer/toolchains/gnu_arm/12.2.rel1_2023.7/bin/../lib/gcc/arm-none-eabi/12.2.1/thumb/v7e-m+fp/softfp\libc_nano.a(libc_a-nano-vfprintf_i.o)
                0x0000a5cc                _printf_i
 .text.__swsetup_r
                0x0000a824       0xac d:/simplicitystudio-5/developer/toolchains/gnu_arm/12.2.rel1_2023.7/bin/../lib/gcc/arm-none-eabi/12.2.1/thumb/v7e-m+fp/softfp\libc_nano.a(libc_a-wsetup.o)
                0x0000a824                __swsetup_r
 .text.raise    0x0000a8d0       0x10 d:/simplicitystudio-5/developer/toolchains/gnu_arm/12.2.rel1_2023.7/bin/../lib/gcc/arm-none-eabi/12.2.1/thumb/v7e-m+fp/softfp\libc_nano.a(libc_a-signal.o)
                0x0000a8d0                raise
 .text._kill_r  0x0000a8e0       0x24 d:/simplicitystudio-5/developer/toolchains/gnu_arm/12.2.rel1_2023.7/bin/../lib/gcc/arm-none-eabi/12.2.1/thumb/v7e-m+fp/softfp\libc_nano.a(libc_a-signalr.o)
                0x0000a8e0                _kill_r
 .text._fstat_r
                0x0000a904       0x24 d:/simplicitystudio-5/developer/toolchains/gnu_arm/12.2.rel1_2023.7/bin/../lib/gcc/arm-none-eabi/12.2.1/thumb/v7e-m+fp/softfp\libc_nano.a(libc_a-fstatr.o)
                0x0000a904                _fstat_r
 .text._isatty_r
                0x0000a928       0x20 d:/simplicitystudio-5/developer/toolchains/gnu_arm/12.2.rel1_2023.7/bin/../lib/gcc/arm-none-eabi/12.2.1/thumb/v7e-m+fp/softfp\libc_nano.a(libc_a-isattyr.o)
                0x0000a928                _isatty_r
 .text.pow      0x0000a948       0xdc d:/simplicitystudio-5/developer/toolchains/gnu_arm/12.2.rel1_2023.7/bin/../lib/gcc/arm-none-eabi/12.2.1/thumb/v7e-m+fp/softfp\libm.a(libm_a-w_pow.o)
                0x0000a948                pow
 .text.fabs     0x0000aa24        0x8 d:/simplicitystudio-5/developer/toolchains/gnu_arm/12.2.rel1_2023.7/bin/../lib/gcc/arm-none-eabi/12.2.1/thumb/v7e-m+fp/softfp\libm.a(libm_a-s_fabs.o)
                0x0000aa24                fabs
 .text.with_errno
                0x0000aa2c       0x18 d:/simplicitystudio-5/developer/toolchains/gnu_arm/12.2.rel1_2023.7/bin/../lib/gcc/arm-none-eabi/12.2.1/thumb/v7e-m+fp/softfp\libm.a(libm_a-math_err.o)
 .text.xflow    0x0000aa44       0x28 d:/simplicitystudio-5/developer/toolchains/gnu_arm/12.2.rel1_2023.7/bin/../lib/gcc/arm-none-eabi/12.2.1/thumb/v7e-m+fp/softfp\libm.a(libm_a-math_err.o)
 .text.__math_uflow
                0x0000aa6c        0xc d:/simplicitystudio-5/developer/toolchains/gnu_arm/12.2.rel1_2023.7/bin/../lib/gcc/arm-none-eabi/12.2.1/thumb/v7e-m+fp/softfp\libm.a(libm_a-math_err.o)
                0x0000aa6c                __math_uflow
 .text.__math_oflow
                0x0000aa78        0xc d:/simplicitystudio-5/developer/toolchains/gnu_arm/12.2.rel1_2023.7/bin/../lib/gcc/arm-none-eabi/12.2.1/thumb/v7e-m+fp/softfp\libm.a(libm_a-math_err.o)
                0x0000aa78                __math_oflow
 .text.__ieee754_sqrt
                0x0000aa84      0x1dc d:/simplicitystudio-5/developer/toolchains/gnu_arm/12.2.rel1_2023.7/bin/../lib/gcc/arm-none-eabi/12.2.1/thumb/v7e-m+fp/softfp\libm.a(libm_a-e_sqrt.o)
                0x0000aa84                __ieee754_sqrt
 .text          0x0000ac60      0x424 d:/simplicitystudio-5/developer/toolchains/gnu_arm/12.2.rel1_2023.7/bin/../lib/gcc/arm-none-eabi/12.2.1/thumb/v7e-m+fp/softfp\libgcc.a(_arm_muldivdf3.o)
                0x0000ac60                __aeabi_dmul
                0x0000ac60                __muldf3
                0x0000aeb4                __divdf3
                0x0000aeb4                __aeabi_ddiv
 .text          0x0000b084      0x110 d:/simplicitystudio-5/developer/toolchains/gnu_arm/12.2.rel1_2023.7/bin/../lib/gcc/arm-none-eabi/12.2.1/thumb/v7e-m+fp/softfp\libgcc.a(_arm_cmpdf2.o)
                0x0000b084                __gtdf2
                0x0000b084                __gedf2
                0x0000b08c                __ltdf2
                0x0000b08c                __ledf2
                0x0000b094                __nedf2
                0x0000b094                __eqdf2
                0x0000b094                __cmpdf2
                0x0000b110                __aeabi_cdrcmple
                0x0000b120                __aeabi_cdcmpeq
                0x0000b120                __aeabi_cdcmple
                0x0000b130                __aeabi_dcmpeq
                0x0000b144                __aeabi_dcmplt
                0x0000b158                __aeabi_dcmple
                0x0000b16c                __aeabi_dcmpge
                0x0000b180                __aeabi_dcmpgt
 .text          0x0000b194       0x2c d:/simplicitystudio-5/developer/toolchains/gnu_arm/12.2.rel1_2023.7/bin/../lib/gcc/arm-none-eabi/12.2.1/thumb/v7e-m+fp/softfp\libgcc.a(_arm_unorddf2.o)
                0x0000b194                __unorddf2
                0x0000b194                __aeabi_dcmpun
 .text.stbi__mul2sizes_valid
                0x0000b1c0       0x22 ./app.o
 .text.stbi__mad3sizes_valid
                0x0000b1e2       0x34 ./app.o
 .text.stbi__refill_buffer
                0x0000b216       0x48 ./app.o
 .text.stbi__at_eof
                0x0000b25e       0x2a ./app.o
 .text.stbi__clamp
                0x0000b288        0xe ./app.o
 .text.stbi__jpeg_reset
                0x0000b296       0x3e ./app.o
 .text.resample_row_1
                0x0000b2d4        0x4 ./app.o
 .text.stbi__resample_row_v_2
                0x0000b2d8       0x1e ./app.o
 .text.stbi__resample_row_hv_2
                0x0000b2f6       0x62 ./app.o
 .text.stbi__resample_row_generic
                0x0000b358       0x28 ./app.o
 .text.stbi__blinn_8x8
                0x0000b380        0xe ./app.o
 .text.stbi__bitreverse16
                0x0000b38e       0x42 ./app.o
 .text.stbi__zget8
                0x0000b3d0       0x12 ./app.o
 .text.stbi__fill_bits
                0x0000b3e2       0x2a ./app.o
 .text.stbi__zreceive
                0x0000b40c       0x28 ./app.o
 .text.stbi__zhuffman_decode
                0x0000b434       0xa2 ./app.o
 .text.stbi__high_bit
                0x0000b4d6       0x36 ./app.o
 .text.stbi__bitcount
                0x0000b50c       0x2c ./app.o
 .text.stbi__tga_get_comp
                0x0000b538       0x4c ./app.o
 .text.stbi__out_gif_code
                0x0000b584       0xc0 ./app.o
 .text.stbi__getn
                0x0000b644       0x5a ./app.o
 .text.stbi__vertical_flip
                0x0000b69e       0x72 ./app.o
 .text.stbi__malloc_mad3
                0x0000b710       0x20 ./app.o
 .text.stbi__malloc_mad2
                0x0000b730       0x28 ./app.o
 .text.stbi__get8
                0x0000b758       0x28 ./app.o
 .text.stbi__get16be
                0x0000b780       0x16 ./app.o
 .text.stbi__get32be
                0x0000b796       0x16 ./app.o
 .text.stbi__get16le
                0x0000b7ac       0x16 ./app.o
 .text.stbi__get32le
                0x0000b7c2       0x16 ./app.o
 .text.stbi__tga_read_rgb16
                0x0000b7d8       0x34 ./app.o
 .text.stbi__grow_buffer_unsafe
                0x0000b80c       0x54 ./app.o
 .text.stbi__jpeg_get_bit
                0x0000b860       0x36 ./app.o
 .text.stbi__pic_is4
                0x0000b896       0x22 ./app.o
 .text.stbi__gif_test_raw
                0x0000b8b8       0x4c ./app.o
 .text.stbi__gif_parse_colortable
                0x0000b904       0x4a ./app.o
 .text.stbi__hdr_gettoken
                0x0000b94e       0x58 ./app.o
 .text.stbi__pnm_skip_whitespace
                0x0000b9a6       0x52 ./app.o
 .text.stbi__skip.part.0
                0x0000b9f8       0x30 ./app.o
 .text.stbi__skip
                0x0000ba28       0x16 ./app.o
 .text.stbi__get_marker
                0x0000ba3e       0x30 ./app.o
 .text.stbi__resample_row_h_2
                0x0000ba6e       0x8a ./app.o
 .text.stbi__hdr_test_core
                0x0000baf8       0x30 ./app.o
 .text.stbi__free_jpeg_components.constprop.0
                0x0000bb28       0x3e ./app.o
 .text.stbi__cleanup_jpeg
                0x0000bb66        0x8 ./app.o
 .text.stbi__mad4sizes_valid.constprop.0
                0x0000bb6e       0x2c ./app.o
 .text.stbi__malloc_mad4.constprop.0
                0x0000bb9a       0x20 ./app.o
 .text.stbi__gif_load.constprop.0
                0x0000bbba       0x82 ./app.o
 .text.stbi_zlib_decode_malloc_guesssize_headerflag
                0x0000bc3c       0x52 ./app.o
                0x0000bc3c                stbi_zlib_decode_malloc_guesssize_headerflag
 .text.stbi_load_from_memory
                0x0000bc8e       0x2c ./app.o
                0x0000bc8e                stbi_load_from_memory
 .text.app_process_action
                0x0000bcba        0x2 ./app.o
                0x0000bcba                app_process_action
 .text.startup.main
                0x0000bcbc       0x14 ./main.o
                0x0000bcbc                main
 .text.rgb_to_grayscale
                0x0000bcd0       0x90 ./nv_optical_flow.o
                0x0000bcd0                rgb_to_grayscale
 .text.build_image_pyramid
                0x0000bd60       0x54 ./nv_optical_flow.o
                0x0000bd60                build_image_pyramid
 .text.compute_gradient
                0x0000bdb4       0xc2 ./nv_optical_flow.o
                0x0000bdb4                compute_gradient
 .text.find_strong_feature
                0x0000be76      0x172 ./nv_optical_flow.o
                0x0000be76                find_strong_feature
 .text.lucas_kanade_pyramid
                0x0000bfe8       0x76 ./nv_optical_flow.o
                0x0000bfe8                lucas_kanade_pyramid
 .text.usart_printf
                0x0000c05e       0x38 ./nv_usart.o
                0x0000c05e                usart_printf
 .text.sl_board_default_init
                0x0000c096        0x4 ./autogen/sl_board_default_init.o
                0x0000c096                sl_board_default_init
 .text.sl_driver_init
                0x0000c09a        0xe ./autogen/sl_event_handler.o
                0x0000c09a                sl_driver_init
 .text.sl_service_init
                0x0000c0a8        0xe ./autogen/sl_event_handler.o
                0x0000c0a8                sl_service_init
 .text.sl_stack_init
                0x0000c0b6        0x2 ./autogen/sl_event_handler.o
                0x0000c0b6                sl_stack_init
 .text.sl_internal_app_init
                0x0000c0b8        0x2 ./autogen/sl_event_handler.o
                0x0000c0b8                sl_internal_app_init
 .text.sl_platform_process_action
                0x0000c0ba        0x2 ./autogen/sl_event_handler.o
                0x0000c0ba                sl_platform_process_action
 .text.sl_service_process_action
                0x0000c0bc        0x2 ./autogen/sl_event_handler.o
                0x0000c0bc                sl_service_process_action
 .text.sl_stack_process_action
                0x0000c0be        0x2 ./autogen/sl_event_handler.o
                0x0000c0be                sl_stack_process_action
 .text.sl_internal_app_process_action
                0x0000c0c0        0x2 ./autogen/sl_event_handler.o
                0x0000c0c0                sl_internal_app_process_action
 .text.sl_board_configure_vcom
                0x0000c0c2        0x4 ./gecko_sdk_4.4.6/hardware/board/src/sl_board_control_gpio.o
                0x0000c0c2                sl_board_configure_vcom
 .text.sl_board_disable_vcom
                0x0000c0c6       0x12 ./gecko_sdk_4.4.6/hardware/board/src/sl_board_control_gpio.o
                0x0000c0c6                sl_board_disable_vcom
 .text.sl_cos_send_config
                0x0000c0d8       0x12 ./gecko_sdk_4.4.6/hardware/driver/configuration_over_swo/src/sl_cos.o
                0x0000c0d8                sl_cos_send_config
 .text.Default_Handler
                0x0000c0ea        0x2 ./gecko_sdk_4.4.6/platform/Device/SiliconLabs/EFR32MG12P/Source/startup_efr32mg12p.o
                0x0000c0ea                DebugMon_Handler
                0x0000c0ea                USART0_TX_IRQHandler
                0x0000c0ea                I2C0_IRQHandler
                0x0000c0ea                HardFault_Handler
                0x0000c0ea                SysTick_Handler
                0x0000c0ea                USART1_RX_IRQHandler
                0x0000c0ea                PendSV_Handler
                0x0000c0ea                NMI_Handler
                0x0000c0ea                SYNTH_IRQHandler
                0x0000c0ea                I2C1_IRQHandler
                0x0000c0ea                WTIMER0_IRQHandler
                0x0000c0ea                CRYPTO0_IRQHandler
                0x0000c0ea                WDOG0_IRQHandler
                0x0000c0ea                USART1_TX_IRQHandler
                0x0000c0ea                SMU_IRQHandler
                0x0000c0ea                MSC_IRQHandler
                0x0000c0ea                ADC0_IRQHandler
                0x0000c0ea                UsageFault_Handler
                0x0000c0ea                WDOG1_IRQHandler
                0x0000c0ea                LEUART0_IRQHandler
                0x0000c0ea                FPUEH_IRQHandler
                0x0000c0ea                WTIMER1_IRQHandler
                0x0000c0ea                GPIO_EVEN_IRQHandler
                0x0000c0ea                VDAC0_IRQHandler
                0x0000c0ea                LDMA_IRQHandler
                0x0000c0ea                CSEN_IRQHandler
                0x0000c0ea                CRYPTO1_IRQHandler
                0x0000c0ea                TIMER0_IRQHandler
                0x0000c0ea                PCNT2_IRQHandler
                0x0000c0ea                LETIMER0_IRQHandler
                0x0000c0ea                TIMER1_IRQHandler
                0x0000c0ea                TRNG0_IRQHandler
                0x0000c0ea                RFSENSE_IRQHandler
                0x0000c0ea                BUFC_IRQHandler
                0x0000c0ea                MODEM_IRQHandler
                0x0000c0ea                Default_Handler
                0x0000c0ea                RAC_SEQ_IRQHandler
                0x0000c0ea                FRC_PRI_IRQHandler
                0x0000c0ea                EMU_IRQHandler
                0x0000c0ea                FRC_IRQHandler
                0x0000c0ea                CRYOTIMER_IRQHandler
                0x0000c0ea                PCNT0_IRQHandler
                0x0000c0ea                AGC_IRQHandler
                0x0000c0ea                sl_app_properties
                0x0000c0ea                PCNT1_IRQHandler
                0x0000c0ea                ACMP0_IRQHandler
                0x0000c0ea                USART0_RX_IRQHandler
                0x0000c0ea                MemManage_Handler
                0x0000c0ea                SVC_Handler
                0x0000c0ea                USART3_RX_IRQHandler
                0x0000c0ea                CMU_IRQHandler
                0x0000c0ea                RAC_RSM_IRQHandler
                0x0000c0ea                GPIO_ODD_IRQHandler
                0x0000c0ea                LESENSE_IRQHandler
                0x0000c0ea                USART3_TX_IRQHandler
                0x0000c0ea                PROTIMER_IRQHandler
                0x0000c0ea                BusFault_Handler
                0x0000c0ea                IDAC0_IRQHandler
 .text.SystemLFRCOClockGet
                0x0000c0ec        0x6 ./gecko_sdk_4.4.6/platform/Device/SiliconLabs/EFR32MG12P/Source/system_efr32mg12p.o
                0x0000c0ec                SystemLFRCOClockGet
 .text.SystemULFRCOClockGet
                0x0000c0f2        0x6 ./gecko_sdk_4.4.6/platform/Device/SiliconLabs/EFR32MG12P/Source/system_efr32mg12p.o
                0x0000c0f2                SystemULFRCOClockGet
 .text.assertEFM
                0x0000c0f8        0x2 ./gecko_sdk_4.4.6/platform/common/src/sl_assert.o
                0x0000c0f8                assertEFM
 .text._close   0x0000c0fa        0x6 ./gecko_sdk_4.4.6/platform/common/src/sl_syscalls.o
                0x0000c0fa                _close
 .text._exit    0x0000c100        0x2 ./gecko_sdk_4.4.6/platform/common/src/sl_syscalls.o
                0x0000c100                _exit
 .text._fstat   0x0000c102        0x4 ./gecko_sdk_4.4.6/platform/common/src/sl_syscalls.o
                0x0000c102                _fstat
 .text._getpid  0x0000c106        0x4 ./gecko_sdk_4.4.6/platform/common/src/sl_syscalls.o
                0x0000c106                _getpid
 .text._isatty  0x0000c10a        0x4 ./gecko_sdk_4.4.6/platform/common/src/sl_syscalls.o
                0x0000c10a                _isatty
 .text._kill    0x0000c10e        0x6 ./gecko_sdk_4.4.6/platform/common/src/sl_syscalls.o
                0x0000c10e                _kill
 .text._lseek   0x0000c114        0x4 ./gecko_sdk_4.4.6/platform/common/src/sl_syscalls.o
                0x0000c114                _lseek
 .text._read    0x0000c118        0x4 ./gecko_sdk_4.4.6/platform/common/src/sl_syscalls.o
                0x0000c118                _read
 .text._write   0x0000c11c        0x4 ./gecko_sdk_4.4.6/platform/common/src/sl_syscalls.o
                0x0000c11c                _write
 .text.sl_debug_swo_enable_itm
                0x0000c120       0x16 ./gecko_sdk_4.4.6/platform/driver/debug/src/sl_debug_swo.o
                0x0000c120                sl_debug_swo_enable_itm
 .text.sl_debug_swo_disable_itm
                0x0000c136       0x18 ./gecko_sdk_4.4.6/platform/driver/debug/src/sl_debug_swo.o
                0x0000c136                sl_debug_swo_disable_itm
 .text.CMU_ClockDivGet
                0x0000c14e        0xa ./gecko_sdk_4.4.6/platform/emlib/src/em_cmu.o
                0x0000c14e                CMU_ClockDivGet
 .text.CORE_EnterCritical
                0x0000c158        0x8 ./gecko_sdk_4.4.6/platform/emlib/src/em_core.o
                0x0000c158                CORE_EnterCritical
 .text.CORE_ExitCritical
                0x0000c160        0x6 ./gecko_sdk_4.4.6/platform/emlib/src/em_core.o
                0x0000c160                CORE_ExitCritical
 .text.CORE_EnterAtomic
                0x0000c166        0xc ./gecko_sdk_4.4.6/platform/emlib/src/em_core.o
                0x0000c166                CORE_EnterAtomic
 .text.CORE_ExitAtomic
                0x0000c172        0x6 ./gecko_sdk_4.4.6/platform/emlib/src/em_core.o
                0x0000c172                CORE_ExitAtomic
 .text.BUS_RegMaskedWrite
                0x0000c178       0x1e ./gecko_sdk_4.4.6/platform/emlib/src/em_gpio.o
 .text.USART_SpiTransfer
                0x0000c196       0x14 ./gecko_sdk_4.4.6/platform/emlib/src/em_usart.o
                0x0000c196                USART_SpiTransfer
 .text.sl_device_init_emu
                0x0000c1aa       0x1c ./gecko_sdk_4.4.6/platform/service/device_init/src/sl_device_init_emu_s1.o
                0x0000c1aa                sl_device_init_emu
 .text.CMU_PrescToLog2.constprop.0
                0x0000c1c6        0x4 ./gecko_sdk_4.4.6/platform/service/sleeptimer/src/sl_sleeptimer_hal_rtcc.o
 .text.sl_system_init
                0x0000c1ca       0x1a ./gecko_sdk_4.4.6/platform/service/system/src/sl_system_init.o
                0x0000c1ca                sl_system_init
 .text.sl_system_process_action
                0x0000c1e4       0x16 ./gecko_sdk_4.4.6/platform/service/system/src/sl_system_process_action.o
                0x0000c1e4                sl_system_process_action
 .text.abs      0x0000c1fa        0x8 d:/simplicitystudio-5/developer/toolchains/gnu_arm/12.2.rel1_2023.7/bin/../lib/gcc/arm-none-eabi/12.2.1/thumb/v7e-m+fp/softfp\libc_nano.a(libc_a-abs.o)
                0x0000c1fa                abs
 .text._realloc_r
                0x0000c202       0x5c d:/simplicitystudio-5/developer/toolchains/gnu_arm/12.2.rel1_2023.7/bin/../lib/gcc/arm-none-eabi/12.2.1/thumb/v7e-m+fp/softfp\libc_nano.a(libc_a-reallocr.o)
                0x0000c202                _realloc_r
 .text._fwalk_sglue
                0x0000c25e       0x3c d:/simplicitystudio-5/developer/toolchains/gnu_arm/12.2.rel1_2023.7/bin/../lib/gcc/arm-none-eabi/12.2.1/thumb/v7e-m+fp/softfp\libc_nano.a(libc_a-fwalk.o)
                0x0000c25e                _fwalk_sglue
 .text.__sread  0x0000c29a       0x22 d:/simplicitystudio-5/developer/toolchains/gnu_arm/12.2.rel1_2023.7/bin/../lib/gcc/arm-none-eabi/12.2.1/thumb/v7e-m+fp/softfp\libc_nano.a(libc_a-stdio.o)
                0x0000c29a                __sread
 .text.__swrite
                0x0000c2bc       0x38 d:/simplicitystudio-5/developer/toolchains/gnu_arm/12.2.rel1_2023.7/bin/../lib/gcc/arm-none-eabi/12.2.1/thumb/v7e-m+fp/softfp\libc_nano.a(libc_a-stdio.o)
                0x0000c2bc                __swrite
 .text.__sseek  0x0000c2f4       0x24 d:/simplicitystudio-5/developer/toolchains/gnu_arm/12.2.rel1_2023.7/bin/../lib/gcc/arm-none-eabi/12.2.1/thumb/v7e-m+fp/softfp\libc_nano.a(libc_a-stdio.o)
                0x0000c2f4                __sseek
 .text.__sclose
                0x0000c318        0x8 d:/simplicitystudio-5/developer/toolchains/gnu_arm/12.2.rel1_2023.7/bin/../lib/gcc/arm-none-eabi/12.2.1/thumb/v7e-m+fp/softfp\libc_nano.a(libc_a-stdio.o)
                0x0000c318                __sclose
 .text._vsnprintf_r
                0x0000c320       0x56 d:/simplicitystudio-5/developer/toolchains/gnu_arm/12.2.rel1_2023.7/bin/../lib/gcc/arm-none-eabi/12.2.1/thumb/v7e-m+fp/softfp\libc_nano.a(libc_a-vsnprintf.o)
                0x0000c320                _vsniprintf_r
                0x0000c320                _vsnprintf_r
 .text.memset   0x0000c376       0x10 d:/simplicitystudio-5/developer/toolchains/gnu_arm/12.2.rel1_2023.7/bin/../lib/gcc/arm-none-eabi/12.2.1/thumb/v7e-m+fp/softfp\libc_nano.a(libc_a-memset.o)
                0x0000c376                memset
 .text.strncmp  0x0000c386       0x24 d:/simplicitystudio-5/developer/toolchains/gnu_arm/12.2.rel1_2023.7/bin/../lib/gcc/arm-none-eabi/12.2.1/thumb/v7e-m+fp/softfp\libc_nano.a(libc_a-strncmp.o)
                0x0000c386                strncmp
 .text.__retarget_lock_init_recursive
                0x0000c3aa        0x2 d:/simplicitystudio-5/developer/toolchains/gnu_arm/12.2.rel1_2023.7/bin/../lib/gcc/arm-none-eabi/12.2.1/thumb/v7e-m+fp/softfp\libc_nano.a(libc_a-lock.o)
                0x0000c3aa                __retarget_lock_init_recursive
 .text.__retarget_lock_acquire_recursive
                0x0000c3ac        0x2 d:/simplicitystudio-5/developer/toolchains/gnu_arm/12.2.rel1_2023.7/bin/../lib/gcc/arm-none-eabi/12.2.1/thumb/v7e-m+fp/softfp\libc_nano.a(libc_a-lock.o)
                0x0000c3ac                __retarget_lock_acquire_recursive
 .text.__retarget_lock_release_recursive
                0x0000c3ae        0x2 d:/simplicitystudio-5/developer/toolchains/gnu_arm/12.2.rel1_2023.7/bin/../lib/gcc/arm-none-eabi/12.2.1/thumb/v7e-m+fp/softfp\libc_nano.a(libc_a-lock.o)
                0x0000c3ae                __retarget_lock_release_recursive
 .text          0x0000c3b0       0x14 d:/simplicitystudio-5/developer/toolchains/gnu_arm/12.2.rel1_2023.7/bin/../lib/gcc/arm-none-eabi/12.2.1/thumb/v7e-m+fp/softfp\libc_nano.a(libc_a-strcmp.o)
                0x0000c3b0                strcmp
 .text.memcpy   0x0000c3c4       0x1c d:/simplicitystudio-5/developer/toolchains/gnu_arm/12.2.rel1_2023.7/bin/../lib/gcc/arm-none-eabi/12.2.1/thumb/v7e-m+fp/softfp\libc_nano.a(libc_a-memcpy-stub.o)
                0x0000c3c4                memcpy
 .text.ldexp    0x0000c3e0       0x4c d:/simplicitystudio-5/developer/toolchains/gnu_arm/12.2.rel1_2023.7/bin/../lib/gcc/arm-none-eabi/12.2.1/thumb/v7e-m+fp/softfp\libc_nano.a(libm_a-s_ldexp.o)
                0x0000c3e0                ldexp
 .text.finite   0x0000c42c        0xc d:/simplicitystudio-5/developer/toolchains/gnu_arm/12.2.rel1_2023.7/bin/../lib/gcc/arm-none-eabi/12.2.1/thumb/v7e-m+fp/softfp\libc_nano.a(libm_a-s_finite.o)
                0x0000c42c                finite
 .text.abort    0x0000c438        0xe d:/simplicitystudio-5/developer/toolchains/gnu_arm/12.2.rel1_2023.7/bin/../lib/gcc/arm-none-eabi/12.2.1/thumb/v7e-m+fp/softfp\libc_nano.a(libc_a-abort.o)
                0x0000c438                abort
 .text._malloc_usable_size_r
                0x0000c446       0x10 d:/simplicitystudio-5/developer/toolchains/gnu_arm/12.2.rel1_2023.7/bin/../lib/gcc/arm-none-eabi/12.2.1/thumb/v7e-m+fp/softfp\libc_nano.a(libc_a-msizer.o)
                0x0000c446                _malloc_usable_size_r
 .text.__ssputs_r
                0x0000c456       0xb6 d:/simplicitystudio-5/developer/toolchains/gnu_arm/12.2.rel1_2023.7/bin/../lib/gcc/arm-none-eabi/12.2.1/thumb/v7e-m+fp/softfp\libc_nano.a(libc_a-nano-svfprintf.o)
                0x0000c456                __ssputs_r
 .text.__sfputc_r
                0x0000c50c       0x2e d:/simplicitystudio-5/developer/toolchains/gnu_arm/12.2.rel1_2023.7/bin/../lib/gcc/arm-none-eabi/12.2.1/thumb/v7e-m+fp/softfp\libc_nano.a(libc_a-nano-vfprintf.o)
 .text.__sfputs_r
                0x0000c53a       0x24 d:/simplicitystudio-5/developer/toolchains/gnu_arm/12.2.rel1_2023.7/bin/../lib/gcc/arm-none-eabi/12.2.1/thumb/v7e-m+fp/softfp\libc_nano.a(libc_a-nano-vfprintf.o)
                0x0000c53a                __sfputs_r
 .text._printf_common
                0x0000c55e       0xda d:/simplicitystudio-5/developer/toolchains/gnu_arm/12.2.rel1_2023.7/bin/../lib/gcc/arm-none-eabi/12.2.1/thumb/v7e-m+fp/softfp\libc_nano.a(libc_a-nano-vfprintf_i.o)
                0x0000c55e                _printf_common
 .text.__sflush_r
                0x0000c638      0x108 d:/simplicitystudio-5/developer/toolchains/gnu_arm/12.2.rel1_2023.7/bin/../lib/gcc/arm-none-eabi/12.2.1/thumb/v7e-m+fp/softfp\libc_nano.a(libc_a-fflush.o)
                0x0000c638                __sflush_r
 .text._fflush_r
                0x0000c740       0x50 d:/simplicitystudio-5/developer/toolchains/gnu_arm/12.2.rel1_2023.7/bin/../lib/gcc/arm-none-eabi/12.2.1/thumb/v7e-m+fp/softfp\libc_nano.a(libc_a-fflush.o)
                0x0000c740                _fflush_r
 .text.__swbuf_r
                0x0000c790       0x7c d:/simplicitystudio-5/developer/toolchains/gnu_arm/12.2.rel1_2023.7/bin/../lib/gcc/arm-none-eabi/12.2.1/thumb/v7e-m+fp/softfp\libc_nano.a(libc_a-wbuf.o)
                0x0000c790                __swbuf_r
 .text.memmove  0x0000c80c       0x34 d:/simplicitystudio-5/developer/toolchains/gnu_arm/12.2.rel1_2023.7/bin/../lib/gcc/arm-none-eabi/12.2.1/thumb/v7e-m+fp/softfp\libc_nano.a(libc_a-memmove.o)
                0x0000c80c                memmove
 .text._raise_r
                0x0000c840       0x50 d:/simplicitystudio-5/developer/toolchains/gnu_arm/12.2.rel1_2023.7/bin/../lib/gcc/arm-none-eabi/12.2.1/thumb/v7e-m+fp/softfp\libc_nano.a(libc_a-signal.o)
                0x0000c840                _raise_r
 .text._getpid_r
                0x0000c890        0x4 d:/simplicitystudio-5/developer/toolchains/gnu_arm/12.2.rel1_2023.7/bin/../lib/gcc/arm-none-eabi/12.2.1/thumb/v7e-m+fp/softfp\libc_nano.a(libc_a-signalr.o)
                0x0000c890                _getpid_r
 .text.__swhatbuf_r
                0x0000c894       0x4c d:/simplicitystudio-5/developer/toolchains/gnu_arm/12.2.rel1_2023.7/bin/../lib/gcc/arm-none-eabi/12.2.1/thumb/v7e-m+fp/softfp\libc_nano.a(libc_a-makebuf.o)
                0x0000c894                __swhatbuf_r
 .text.__smakebuf_r
                0x0000c8e0       0x78 d:/simplicitystudio-5/developer/toolchains/gnu_arm/12.2.rel1_2023.7/bin/../lib/gcc/arm-none-eabi/12.2.1/thumb/v7e-m+fp/softfp\libc_nano.a(libc_a-makebuf.o)
                0x0000c8e0                __smakebuf_r
                0x0000c960                . = ALIGN (0x20)
 *fill*         0x0000c958        0x8 
                0x0000c960                linker_code_end = .
 *(.init)
 .init          0x0000c960        0x4 d:/simplicitystudio-5/developer/toolchains/gnu_arm/12.2.rel1_2023.7/bin/../lib/gcc/arm-none-eabi/12.2.1/thumb/v7e-m+fp/softfp/crti.o
                0x0000c960                _init
 .init          0x0000c964        0x8 d:/simplicitystudio-5/developer/toolchains/gnu_arm/12.2.rel1_2023.7/bin/../lib/gcc/arm-none-eabi/12.2.1/thumb/v7e-m+fp/softfp/crtn.o
 *(.fini)
 .fini          0x0000c96c        0x4 d:/simplicitystudio-5/developer/toolchains/gnu_arm/12.2.rel1_2023.7/bin/../lib/gcc/arm-none-eabi/12.2.1/thumb/v7e-m+fp/softfp/crti.o
                0x0000c96c                _fini
 .fini          0x0000c970        0x8 d:/simplicitystudio-5/developer/toolchains/gnu_arm/12.2.rel1_2023.7/bin/../lib/gcc/arm-none-eabi/12.2.1/thumb/v7e-m+fp/softfp/crtn.o
 *crtbegin.o(.ctors)
 *crtbegin?.o(.ctors)
 *(EXCLUDE_FILE(*crtend.o *crtend?.o) .ctors)
 *(SORT_BY_NAME(.ctors.*))
 *(.ctors)
 *crtbegin.o(.dtors)
 *crtbegin?.o(.dtors)
 *(EXCLUDE_FILE(*crtend.o *crtend?.o) .dtors)
 *(SORT_BY_NAME(.dtors.*))
 *(.dtors)
                0x0000c978                __code_classification_validator_start__ = .
                0x0000c998                . = (. + 0x20)
 *fill*         0x0000c978       0x20 
 *(code_classification_validator)
                0x0000c9a0                . = ALIGN (0x20)
 *fill*         0x0000c998        0x8 
                0x0000c9a0                __code_classification_validator_end__ = .
 *(.rodata*)
 .rodata.rx_callback.str1.1
                0x0000c9a0        0x4 ./app.o
 .rodata.stbi__jpeg_huff_decode.str1.1
                0x0000c9a4       0x61 ./app.o
 .rodata.stbi__hdr_test.str1.1
                0x0000ca05       0x14 ./app.o
 .rodata.stbi__hdr_info.str1.1
                0x0000ca19       0x1f ./app.o
 .rodata.stbi__create_png_alpha_expand8.str1.1
                0x0000ca38        0xb ./app.o
 .rodata.stbi__shiftsigned.str1.1
                0x0000ca43       0x1f ./app.o
 .rodata.stbi__pnm_getinteger.str1.1
                0x0000ca62       0x17 ./app.o
 .rodata.stbi__pnm_info.str1.1
                0x0000ca79       0x20 ./app.o
 .rodata.stbi__load_gif_main_outofmem.str1.1
                0x0000ca99        0x9 ./app.o
 .rodata.stbi__gif_header.str1.1
                0x0000caa2       0x12 ./app.o
                                 0x13 (size before relaxing)
 .rodata.stbi__readval.str1.1
                0x0000cab4        0x9 ./app.o
 .rodata.stbi__check_png_header.str1.1
                0x0000cabd        0xc ./app.o
 .rodata.stbi__zexpand.str1.1
                0x0000cac9       0x14 ./app.o
 .rodata.stbi__zbuild_huffman.str1.1
                0x0000cadd       0x1a ./app.o
 .rodata.stbi__parse_zlib.str1.1
                0x0000caf7       0x76 ./app.o
 .rodata.stbi__jpeg_decode_block.str1.1
                0x0000cb6d       0x20 ./app.o
 .rodata.stbi__build_huffman.str1.1
                0x0000cb8d       0x1f ./app.o
 .rodata.stbi__process_marker.str1.1
                0x0000cbac       0x6d ./app.o
 .rodata.stbi__gif_load_next.constprop.0.str1.1
                0x0000cc19       0x6a ./app.o
 .rodata.stbi__decode_jpeg_header.str1.1
                0x0000cc83       0x65 ./app.o
 .rodata.stbi__hdr_load.constprop.0.str1.1
                0x0000cce8       0x65 ./app.o
                                 0x6d (size before relaxing)
 .rodata.stbi__bmp_parse_header.constprop.0.str1.1
                0x0000cd4d       0x31 ./app.o
 .rodata.stbi__convert_format16.str1.1
                0x0000cd7e       0x21 ./app.o
 .rodata.stbi__bmp_load.constprop.0.str1.1
                0x0000cd9f       0x30 ./app.o
 .rodata.stbi__create_png_image_raw.str1.1
                0x0000cdcf       0x66 ./app.o
 .rodata.stbi__parse_png_file.str1.1
                0x0000ce35      0x12d ./app.o
 .rodata.stbi__load_main.str1.1
                0x0000cf62      0x125 ./app.o
 .rodata.stbi__load_and_postprocess_16bit.str1.1
                0x0000d087       0x36 ./app.o
 .rodata.app_init.str1.1
                0x0000d0bd      0x150 ./app.o
 .rodata.length_dezigzag.1
                0x0000d20d       0x13 ./app.o
 .rodata.__func__.3
                0x0000d220       0x20 ./app.o
 .rodata.__func__.4
                0x0000d240        0xf ./app.o
 .rodata.__func__.5
                0x0000d24f       0x17 ./app.o
 .rodata.rgb.6  0x0000d266        0x3 ./app.o
 .rodata.tag.7  0x0000d269        0x6 ./app.o
 .rodata.tag.8  0x0000d26f        0x5 ./app.o
 .rodata.shift_table.9
                0x0000d274       0x24 ./app.o
 .rodata.mul_table.10
                0x0000d298       0x24 ./app.o
 .rodata.__func__.11
                0x0000d2bc       0x12 ./app.o
 .rodata.__func__.12
                0x0000d2ce       0x17 ./app.o
 .rodata.__func__.13
                0x0000d2e5       0x15 ./app.o
 .rodata.__func__.14
                0x0000d2fa       0x10 ./app.o
 .rodata.__func__.15
                0x0000d30a       0x1b ./app.o
 .rodata.__func__.16
                0x0000d325       0x1d ./app.o
 .rodata.__func__.17
                0x0000d342       0x1f ./app.o
 .rodata.__func__.18
                0x0000d361       0x1b ./app.o
 .rodata.png_sig.20
                0x0000d37c        0x8 ./app.o
 .rodata.frame2_jpg
                0x0000d384     0x1417 ./app.o
                0x0000d384                frame2_jpg
 .rodata.frame1_jpg
                0x0000e79b     0x13d3 ./app.o
                0x0000e79b                frame1_jpg
 .rodata.stbi__depth_scale_table
                0x0000fb6e        0x9 ./app.o
 .rodata.first_row_filter
                0x0000fb77        0x5 ./app.o
 .rodata.stbi__zdefault_distance
                0x0000fb7c       0x20 ./app.o
 .rodata.stbi__zdefault_length
                0x0000fb9c      0x120 ./app.o
 .rodata.stbi__zdist_extra
                0x0000fcbc       0x80 ./app.o
 .rodata.stbi__zdist_base
                0x0000fd3c       0x80 ./app.o
 .rodata.stbi__zlength_extra
                0x0000fdbc       0x7c ./app.o
 .rodata.stbi__zlength_base
                0x0000fe38       0x7c ./app.o
 .rodata.stbi__jpeg_dezigzag
                0x0000feb4       0x4f ./app.o
 *fill*         0x0000ff03        0x1 
 .rodata.stbi__jbias
                0x0000ff04       0x40 ./app.o
 .rodata.stbi__bmask
                0x0000ff44       0x44 ./app.o
 .rodata        0x0000ff88       0x7c ./app.o
 .rodata        0x00010004       0x1c ./nv_usart.o
 .rodata        0x00010020       0x1c ./gecko_sdk_4.4.6/hardware/driver/mx25_flash_shutdown/src/sl_mx25_flash_shutdown_usart/sl_mx25_flash_shutdown.o
 .rodata.flashWaitStateControl.str1.1
                0x0001003c       0x29 ./gecko_sdk_4.4.6/platform/emlib/src/em_cmu.o
 *fill*         0x00010065        0x1 
 .rodata.CSWTCH.79
                0x00010066        0xa ./gecko_sdk_4.4.6/platform/emlib/src/em_cmu.o
 .rodata.CSWTCH.78
                0x00010070        0xa ./gecko_sdk_4.4.6/platform/emlib/src/em_cmu.o
 .rodata.CSWTCH.77
                0x0001007a        0x5 ./gecko_sdk_4.4.6/platform/emlib/src/em_cmu.o
 .rodata.CSWTCH.76
                0x0001007f        0x5 ./gecko_sdk_4.4.6/platform/emlib/src/em_cmu.o
 .rodata.flashWsTable
                0x00010084       0x28 ./gecko_sdk_4.4.6/platform/emlib/src/em_cmu.o
 .rodata.vmonCalibratedThreshold.str1.1
                0x000100ac       0x29 ./gecko_sdk_4.4.6/platform/emlib/src/em_emu.o
 .rodata.GPIO_PinOutSet.str1.1
                0x000100d5       0x2a ./gecko_sdk_4.4.6/platform/emlib/src/em_gpio.o
 .rodata.GPIO_DbgLocationSet.str1.1
                0x000100ff       0x2a ./gecko_sdk_4.4.6/platform/emlib/src/em_gpio.o
 *fill*         0x00010129        0x1 
 .rodata.CSWTCH.78
                0x0001012a       0x16 ./gecko_sdk_4.4.6/platform/emlib/src/em_gpio.o
 .rodata.RTCC_ChannelInit.str1.1
                0x00010140       0x2a ./gecko_sdk_4.4.6/platform/emlib/src/em_rtcc.o
 .rodata.USART_BaudrateAsyncSet.str1.1
                0x0001016a       0x2b ./gecko_sdk_4.4.6/platform/emlib/src/em_usart.o
 *fill*         0x00010195        0x1 
 .rodata        0x00010196       0x10 ./gecko_sdk_4.4.6/platform/service/device_init/src/sl_device_init_dcdc_s1.o
 .rodata        0x000101a6       0x12 ./gecko_sdk_4.4.6/platform/service/device_init/src/sl_device_init_hfxo_s1.o
 .rodata        0x000101b8        0x4 ./gecko_sdk_4.4.6/platform/service/device_init/src/sl_device_init_lfxo_s1.o
 .rodata.process_timer_irq.str1.1
                0x000101bc       0x3d ./gecko_sdk_4.4.6/platform/service/sleeptimer/src/sl_sleeptimer.o
 .rodata        0x000101f9       0x10 ./gecko_sdk_4.4.6/platform/service/sleeptimer/src/sl_sleeptimer_hal_rtcc.o
 .rodata.sl_udelay_wait.str1.1
                0x00010209       0x35 ./gecko_sdk_4.4.6/platform/service/udelay/src/sl_udelay.o
 .rodata.__assert_func.str1.1
                0x0001023e       0x3c d:/simplicitystudio-5/developer/toolchains/gnu_arm/12.2.rel1_2023.7/bin/../lib/gcc/arm-none-eabi/12.2.1/thumb/v7e-m+fp/softfp\libc_nano.a(libc_a-assert.o)
                                 0x3d (size before relaxing)
 .rodata._ctype_
                0x0001027a      0x101 d:/simplicitystudio-5/developer/toolchains/gnu_arm/12.2.rel1_2023.7/bin/../lib/gcc/arm-none-eabi/12.2.1/thumb/v7e-m+fp/softfp\libc_nano.a(libc_a-ctype_.o)
                0x0001027a                _ctype_
 .rodata._svfprintf_r.str1.1
                0x0001037b       0x11 d:/simplicitystudio-5/developer/toolchains/gnu_arm/12.2.rel1_2023.7/bin/../lib/gcc/arm-none-eabi/12.2.1/thumb/v7e-m+fp/softfp\libc_nano.a(libc_a-nano-svfprintf.o)
 .rodata._vfprintf_r.str1.1
                0x0001038c       0x11 d:/simplicitystudio-5/developer/toolchains/gnu_arm/12.2.rel1_2023.7/bin/../lib/gcc/arm-none-eabi/12.2.1/thumb/v7e-m+fp/softfp\libc_nano.a(libc_a-nano-vfprintf.o)
 .rodata._printf_i.str1.1
                0x0001038c       0x22 d:/simplicitystudio-5/developer/toolchains/gnu_arm/12.2.rel1_2023.7/bin/../lib/gcc/arm-none-eabi/12.2.1/thumb/v7e-m+fp/softfp\libc_nano.a(libc_a-nano-vfprintf_i.o)
 *(.eh_frame*)
 *fill*         0x000103ae        0x2 
 .eh_frame      0x000103b0        0x0 d:/simplicitystudio-5/developer/toolchains/gnu_arm/12.2.rel1_2023.7/bin/../lib/gcc/arm-none-eabi/12.2.1/thumb/v7e-m+fp/softfp/crtbegin.o

.glue_7         0x000103b0        0x0
 .glue_7        0x000103b0        0x0 linker stubs

.glue_7t        0x000103b0        0x0
 .glue_7t       0x000103b0        0x0 linker stubs

.vfp11_veneer   0x000103b0        0x0
 .vfp11_veneer  0x000103b0        0x0 linker stubs

.v4_bx          0x000103b0        0x0
 .v4_bx         0x000103b0        0x0 linker stubs

.iplt           0x000103b0        0x0
 .iplt          0x000103b0        0x0 d:/simplicitystudio-5/developer/toolchains/gnu_arm/12.2.rel1_2023.7/bin/../lib/gcc/arm-none-eabi/12.2.1/thumb/v7e-m+fp/softfp/crtbegin.o

.ARM.extab
 *(.ARM.extab* .gnu.linkonce.armextab.*)
                0x000103b0                __exidx_start = .

.ARM.exidx      0x000103b0        0x8
 *(.ARM.exidx* .gnu.linkonce.armexidx.*)
 .ARM.exidx     0x000103b0        0x8 d:/simplicitystudio-5/developer/toolchains/gnu_arm/12.2.rel1_2023.7/bin/../lib/gcc/arm-none-eabi/12.2.1/thumb/v7e-m+fp/softfp/crt0.o
                                 0x10 (size before relaxing)
 .ARM.exidx.text.__udivmoddi4
                0x000103b8        0x0 d:/simplicitystudio-5/developer/toolchains/gnu_arm/12.2.rel1_2023.7/bin/../lib/gcc/arm-none-eabi/12.2.1/thumb/v7e-m+fp/softfp\libgcc.a(_udivmoddi4.o)
                                  0x8 (size before relaxing)
 .ARM.exidx.text.__gthread_active_p
                0x000103b8        0x0 d:/simplicitystudio-5/developer/toolchains/gnu_arm/12.2.rel1_2023.7/bin/../lib/gcc/arm-none-eabi/12.2.1/thumb/v7e-m+fp/softfp\libgcc.a(emutls.o)
                                  0x8 (size before relaxing)
 .ARM.exidx.text.emutls_alloc
                0x000103b8        0x0 d:/simplicitystudio-5/developer/toolchains/gnu_arm/12.2.rel1_2023.7/bin/../lib/gcc/arm-none-eabi/12.2.1/thumb/v7e-m+fp/softfp\libgcc.a(emutls.o)
                                  0x8 (size before relaxing)
 .ARM.exidx.text.__emutls_get_address
                0x000103b8        0x0 d:/simplicitystudio-5/developer/toolchains/gnu_arm/12.2.rel1_2023.7/bin/../lib/gcc/arm-none-eabi/12.2.1/thumb/v7e-m+fp/softfp\libgcc.a(emutls.o)
                                  0x8 (size before relaxing)
                0x000103b8                __exidx_end = .

.rel.dyn        0x000103b8        0x0
 .rel.iplt      0x000103b8        0x0 d:/simplicitystudio-5/developer/toolchains/gnu_arm/12.2.rel1_2023.7/bin/../lib/gcc/arm-none-eabi/12.2.1/thumb/v7e-m+fp/softfp/crtbegin.o

.copy.table     0x000103b8        0xc
                0x000103b8                . = ALIGN (0x4)
                0x000103b8                __copy_table_start__ = .
                0x000103b8        0x4 LONG 0x103c4 __etext
                0x000103bc        0x4 LONG 0x20001000 __data_start__
                0x000103c0        0x4 LONG 0x49 ((__data_end__ - __data_start__) / 0x4)
                0x000103c4                __copy_table_end__ = .

.zero.table     0x000103c4        0x0
                0x000103c4                . = ALIGN (0x4)
                0x000103c4                __zero_table_start__ = .
                0x000103c4                __zero_table_end__ = .
                0x000103c4                __etext = .
                0x20000000                . = ORIGIN (RAM)

.stack          0x20000000     0x1000
                0x20000000                __StackLimit = .
 *(.stack*)
 .stack         0x20000000     0x1000 ./gecko_sdk_4.4.6/platform/common/toolchain/src/sl_memory.o
                0x20001000                . = ALIGN (0x4)
                0x20001000                __StackTop = .
                0x20001000                PROVIDE (__stack = __StackTop)

.noinit
 *(.noinit*)

.data           0x20001000      0x124 load address 0x000103c4
                0x20001000                . = ALIGN (0x4)
                0x20001000                __data_start__ = .
 *(vtable)
 *(SORT_BY_ALIGNMENT(.data*))
 .data.tiny     0x20001000        0x8 d:/simplicitystudio-5/developer/toolchains/gnu_arm/12.2.rel1_2023.7/bin/../lib/gcc/arm-none-eabi/12.2.1/thumb/v7e-m+fp/softfp\libm.a(libm_a-e_sqrt.o)
 .data.one      0x20001008        0x8 d:/simplicitystudio-5/developer/toolchains/gnu_arm/12.2.rel1_2023.7/bin/../lib/gcc/arm-none-eabi/12.2.1/thumb/v7e-m+fp/softfp\libm.a(libm_a-e_sqrt.o)
 .data.__emutls_v.stbi__g_failure_reason
                0x20001010       0x10 ./app.o
 .data.__emutls_v.stbi__vertically_flip_on_load_local
                0x20001020       0x10 ./app.o
 .data.__emutls_v.stbi__vertically_flip_on_load_set
                0x20001030       0x10 ./app.o
 .data.__emutls_v.stbi__unpremultiply_on_load_local
                0x20001040       0x10 ./app.o
 .data.__emutls_v.stbi__unpremultiply_on_load_set
                0x20001050       0x10 ./app.o
 .data.__emutls_v.stbi__de_iphone_flag_local
                0x20001060       0x10 ./app.o
 .data.__emutls_v.stbi__de_iphone_flag_set
                0x20001070       0x10 ./app.o
 .data.stbi__h2l_scale_i
                0x20001080        0x4 ./app.o
 .data.stbi__h2l_gamma_i
                0x20001084        0x4 ./app.o
 .data.SystemHfrcoFreq
                0x20001088        0x4 ./gecko_sdk_4.4.6/platform/Device/SiliconLabs/EFR32MG12P/Source/system_efr32mg12p.o
                0x20001088                SystemHfrcoFreq
 .data.SystemCoreClock
                0x2000108c        0x4 ./gecko_sdk_4.4.6/platform/Device/SiliconLabs/EFR32MG12P/Source/system_efr32mg12p.o
                0x2000108c                SystemCoreClock
 .data.SystemLFXOClock
                0x20001090        0x4 ./gecko_sdk_4.4.6/platform/Device/SiliconLabs/EFR32MG12P/Source/system_efr32mg12p.o
 .data.SystemHFXOClock
                0x20001094        0x4 ./gecko_sdk_4.4.6/platform/Device/SiliconLabs/EFR32MG12P/Source/system_efr32mg12p.o
 .data.heap_end.0
                0x20001098        0x4 ./gecko_sdk_4.4.6/platform/common/toolchain/src/sl_memory.o
 .data.auxHfrcoFreq
                0x2000109c        0x4 ./gecko_sdk_4.4.6/platform/emlib/src/em_cmu.o
 .data.__sglue  0x200010a0        0xc d:/simplicitystudio-5/developer/toolchains/gnu_arm/12.2.rel1_2023.7/bin/../lib/gcc/arm-none-eabi/12.2.1/thumb/v7e-m+fp/softfp\libc_nano.a(libc_a-findfp.o)
                0x200010a0                __sglue
 .data._impure_ptr
                0x200010ac        0x4 d:/simplicitystudio-5/developer/toolchains/gnu_arm/12.2.rel1_2023.7/bin/../lib/gcc/arm-none-eabi/12.2.1/thumb/v7e-m+fp/softfp\libc_nano.a(libc_a-impure.o)
                0x200010ac                _impure_ptr
 .data._impure_data
                0x200010b0       0x4c d:/simplicitystudio-5/developer/toolchains/gnu_arm/12.2.rel1_2023.7/bin/../lib/gcc/arm-none-eabi/12.2.1/thumb/v7e-m+fp/softfp\libc_nano.a(libc_a-impure.o)
                0x200010b0                _impure_data
 .data.hfxo_precision
                0x200010fc        0x2 ./gecko_sdk_4.4.6/platform/emlib/src/em_cmu.o
 .data.lfxo_precision
                0x200010fe        0x2 ./gecko_sdk_4.4.6/platform/emlib/src/em_cmu.o
 .data.invalid_chunk.19
                0x20001100       0x19 ./app.o
 .data.cc_disabled
                0x20001119        0x1 ./gecko_sdk_4.4.6/platform/service/sleeptimer/src/sl_sleeptimer_hal_rtcc.o
                0x2000111c                . = ALIGN (0x4)
 *fill*         0x2000111a        0x2 
                [!provide]                PROVIDE (__ram_func_section_start = .)
 *(.ram)
                [!provide]                PROVIDE (__ram_func_section_end = .)
                0x2000111c                . = ALIGN (0x4)
                0x2000111c                PROVIDE (__preinit_array_start = .)
 *(.preinit_array)
                0x2000111c                PROVIDE (__preinit_array_end = .)
                0x2000111c                . = ALIGN (0x4)
                0x2000111c                PROVIDE (__init_array_start = .)
 *(SORT_BY_NAME(.init_array.*))
 *(.init_array)
 .init_array    0x2000111c        0x4 d:/simplicitystudio-5/developer/toolchains/gnu_arm/12.2.rel1_2023.7/bin/../lib/gcc/arm-none-eabi/12.2.1/thumb/v7e-m+fp/softfp/crtbegin.o
                0x20001120                PROVIDE (__init_array_end = .)
                0x20001120                . = ALIGN (0x4)
                [!provide]                PROVIDE (__fini_array_start = .)
 *(SORT_BY_NAME(.fini_array.*))
 *(.fini_array)
 .fini_array    0x20001120        0x4 d:/simplicitystudio-5/developer/toolchains/gnu_arm/12.2.rel1_2023.7/bin/../lib/gcc/arm-none-eabi/12.2.1/thumb/v7e-m+fp/softfp/crtbegin.o
                [!provide]                PROVIDE (__fini_array_end = .)
                0x20001124                . = ALIGN (0x4)
                0x20001124                __data_end__ = .

.tm_clone_table
                0x20001124        0x0 load address 0x000104e8
 .tm_clone_table
                0x20001124        0x0 d:/simplicitystudio-5/developer/toolchains/gnu_arm/12.2.rel1_2023.7/bin/../lib/gcc/arm-none-eabi/12.2.1/thumb/v7e-m+fp/softfp/crtbegin.o
 .tm_clone_table
                0x20001124        0x0 d:/simplicitystudio-5/developer/toolchains/gnu_arm/12.2.rel1_2023.7/bin/../lib/gcc/arm-none-eabi/12.2.1/thumb/v7e-m+fp/softfp/crtend.o

.igot.plt       0x20001124        0x0 load address 0x000104e8
 .igot.plt      0x20001124        0x0 d:/simplicitystudio-5/developer/toolchains/gnu_arm/12.2.rel1_2023.7/bin/../lib/gcc/arm-none-eabi/12.2.1/thumb/v7e-m+fp/softfp/crtbegin.o

.bss            0x20001124     0xf0a4 load address 0x000104e8
                0x20001124                . = ALIGN (0x4)
                0x20001124                __bss_start__ = .
 *(SORT_BY_ALIGNMENT(.bss*))
 .bss.object.0  0x20001124       0x18 d:/simplicitystudio-5/developer/toolchains/gnu_arm/12.2.rel1_2023.7/bin/../lib/gcc/arm-none-eabi/12.2.1/thumb/v7e-m+fp/softfp/crtbegin.o
 .bss.stbi__de_iphone_flag_global
                0x2000113c        0x4 ./app.o
 .bss.stbi__unpremultiply_on_load_global
                0x20001140        0x4 ./app.o
 .bss.stbi__vertically_flip_on_load_global
                0x20001144        0x4 ./app.o
 .bss.tx_callback
                0x20001148        0x4 ./nv_usart.o
 .bss.rx_callback
                0x2000114c        0x4 ./nv_usart.o
 .bss.max_millisecond_conversion
                0x20001150        0x4 ./gecko_sdk_4.4.6/platform/service/sleeptimer/src/sl_sleeptimer.o
 .bss.last_delta_update_count
                0x20001154        0x4 ./gecko_sdk_4.4.6/platform/service/sleeptimer/src/sl_sleeptimer.o
 .bss.timer_head
                0x20001158        0x4 ./gecko_sdk_4.4.6/platform/service/sleeptimer/src/sl_sleeptimer.o
 .bss.timer_frequency
                0x2000115c        0x4 ./gecko_sdk_4.4.6/platform/service/sleeptimer/src/sl_sleeptimer.o
 .bss.__malloc_sbrk_start
                0x20001160        0x4 d:/simplicitystudio-5/developer/toolchains/gnu_arm/12.2.rel1_2023.7/bin/../lib/gcc/arm-none-eabi/12.2.1/thumb/v7e-m+fp/softfp\libc_nano.a(libc_a-mallocr.o)
                0x20001160                __malloc_sbrk_start
 .bss.__malloc_free_list
                0x20001164        0x4 d:/simplicitystudio-5/developer/toolchains/gnu_arm/12.2.rel1_2023.7/bin/../lib/gcc/arm-none-eabi/12.2.1/thumb/v7e-m+fp/softfp\libc_nano.a(libc_a-mallocr.o)
                0x20001164                __malloc_free_list
 .bss.__sf      0x20001168      0x138 d:/simplicitystudio-5/developer/toolchains/gnu_arm/12.2.rel1_2023.7/bin/../lib/gcc/arm-none-eabi/12.2.1/thumb/v7e-m+fp/softfp\libc_nano.a(libc_a-findfp.o)
                0x20001168                __sf
 .bss.__stdio_exit_handler
                0x200012a0        0x4 d:/simplicitystudio-5/developer/toolchains/gnu_arm/12.2.rel1_2023.7/bin/../lib/gcc/arm-none-eabi/12.2.1/thumb/v7e-m+fp/softfp\libc_nano.a(libc_a-findfp.o)
                0x200012a0                __stdio_exit_handler
 .bss.errno     0x200012a4        0x4 d:/simplicitystudio-5/developer/toolchains/gnu_arm/12.2.rel1_2023.7/bin/../lib/gcc/arm-none-eabi/12.2.1/thumb/v7e-m+fp/softfp\libc_nano.a(libc_a-reent.o)
                0x200012a4                errno
 .bss.grad_buffer_local.0
                0x200012a8     0x7080 ./app.o
 .bss.dcdcReverseCurrentControl
                0x20008328        0x2 ./gecko_sdk_4.4.6/platform/emlib/src/em_emu.o
 .bss.dcdcEm01LoadCurrent_mA
                0x2000832a        0x2 ./gecko_sdk_4.4.6/platform/emlib/src/em_emu.o
 .bss.dcdcMaxCurrent_mA
                0x2000832c        0x2 ./gecko_sdk_4.4.6/platform/emlib/src/em_emu.o
 .bss.overflow_counter
                0x2000832e        0x2 ./gecko_sdk_4.4.6/platform/service/sleeptimer/src/sl_sleeptimer.o
 .bss.completed.1
                0x20008330        0x1 d:/simplicitystudio-5/developer/toolchains/gnu_arm/12.2.rel1_2023.7/bin/../lib/gcc/arm-none-eabi/12.2.1/thumb/v7e-m+fp/softfp/crtbegin.o
 .bss.gray_buffer
                0x20008331     0x3840 ./app.o
 .bss.pyr_buffer
                0x2000bb71     0x4650 ./app.o
 .bss.vScaleEM01Config
                0x200101c1        0x1 ./gecko_sdk_4.4.6/platform/emlib/src/em_emu.o
 .bss.sleep_on_isr_exit
                0x200101c2        0x1 ./gecko_sdk_4.4.6/platform/service/sleeptimer/src/sl_sleeptimer.o
 .bss.next_timer_to_expire_is_power_manager
                0x200101c3        0x1 ./gecko_sdk_4.4.6/platform/service/sleeptimer/src/sl_sleeptimer.o
 .bss.is_sleeptimer_initialized
                0x200101c4        0x1 ./gecko_sdk_4.4.6/platform/service/sleeptimer/src/sl_sleeptimer.o
 .bss.__lock___malloc_recursive_mutex
                0x200101c5        0x1 d:/simplicitystudio-5/developer/toolchains/gnu_arm/12.2.rel1_2023.7/bin/../lib/gcc/arm-none-eabi/12.2.1/thumb/v7e-m+fp/softfp\libc_nano.a(libc_a-lock.o)
                0x200101c5                __lock___malloc_recursive_mutex
 .bss.__lock___sfp_recursive_mutex
                0x200101c6        0x1 d:/simplicitystudio-5/developer/toolchains/gnu_arm/12.2.rel1_2023.7/bin/../lib/gcc/arm-none-eabi/12.2.1/thumb/v7e-m+fp/softfp\libc_nano.a(libc_a-lock.o)
                0x200101c6                __lock___sfp_recursive_mutex
 *(COMMON)
                0x200101c8                . = ALIGN (0x4)
 *fill*         0x200101c7        0x1 
                0x200101c8                __bss_end__ = .
                0x200101c8                __ramfuncs_start__ = .
                0x200101c8                __vma_ramfuncs_start__ = .
                0x000104e8                __lma_ramfuncs_start__ = (__etext + SIZEOF (.data))
                0x00000000                __text_application_ram_offset__ = (. - __vma_ramfuncs_start__)

text_application_ram
                0x200101c8        0x0 load address 0x000104e8
                0x200101c8                . = ALIGN (0x4)
                0x200101c8                __text_application_ram_start__ = .
 *(text_application_ram)
                0x200101c8                . = ALIGN (0x4)
                0x200101c8                __text_application_ram_end__ = .
                0x200101c8                . = ALIGN (0x4)
                0x200101c8                __vma_ramfuncs_end__ = .
                0x000104e8                __lma_ramfuncs_end__ = ((__lma_ramfuncs_start__ + __text_application_ram_offset__) + SIZEOF (text_application_ram))
                0x200101c8                __ramfuncs_end__ = .

.heap           0x200101c8      0x800
                0x200101c8                __HeapBase = .
                0x200101c8                __end__ = .
                0x200101c8                end = __end__
                0x200101c8                _end = __end__
 *(.heap*)
 .heap          0x200101c8      0x800 ./gecko_sdk_4.4.6/platform/common/toolchain/src/sl_memory.o
                0x2007d000                __HeapLimit = (ORIGIN (RAM) + LENGTH (RAM))
                0x0006ce38                __heap_size = (__HeapLimit - __HeapBase)
                0x2007d000                __ram_end__ = 0x2007d000
                0x00180000                __main_flash_end__ = 0x180000

.internal_storage
 *(.internal_storage*)

.nvm
 *(.simee*)
                0x00180000                linker_nvm_end = __main_flash_end__
                0x00180000                linker_nvm_begin = (linker_nvm_end - SIZEOF (.nvm))
                0x00000000                linker_nvm_size = SIZEOF (.nvm)
                0x00180000                linker_storage_end = linker_nvm_begin
                0x00180000                __nvm3Base = linker_nvm_begin
                0x00180000                linker_storage_begin = (linker_storage_end - SIZEOF (.internal_storage))
                0x00000000                linker_storage_size = SIZEOF (.internal_storage)
                0x00000001                ASSERT ((linker_storage_begin >= (__etext + SIZEOF (.data))), FLASH memory overflowed !)
OUTPUT(silmotion_xG12.axf elf32-littlearm)
LOAD linker stubs

.ARM.attributes
                0x00000000       0x2e
 .ARM.attributes
                0x00000000       0x22 d:/simplicitystudio-5/developer/toolchains/gnu_arm/12.2.rel1_2023.7/bin/../lib/gcc/arm-none-eabi/12.2.1/thumb/v7e-m+fp/softfp/crti.o
 .ARM.attributes
                0x00000022       0x32 d:/simplicitystudio-5/developer/toolchains/gnu_arm/12.2.rel1_2023.7/bin/../lib/gcc/arm-none-eabi/12.2.1/thumb/v7e-m+fp/softfp/crtbegin.o
 .ARM.attributes
                0x00000054       0x20 d:/simplicitystudio-5/developer/toolchains/gnu_arm/12.2.rel1_2023.7/bin/../lib/gcc/arm-none-eabi/12.2.1/thumb/v7e-m+fp/softfp/crt0.o
 .ARM.attributes
                0x00000074       0x32 ./app.o
 .ARM.attributes
                0x000000a6       0x32 ./main.o
 .ARM.attributes
                0x000000d8       0x32 ./nv_optical_flow.o
 .ARM.attributes
                0x0000010a       0x32 ./nv_usart.o
 .ARM.attributes
                0x0000013c       0x32 ./autogen/sl_board_default_init.o
 .ARM.attributes
                0x0000016e       0x32 ./autogen/sl_device_init_clocks.o
 .ARM.attributes
                0x000001a0       0x32 ./autogen/sl_event_handler.o
 .ARM.attributes
                0x000001d2       0x32 ./gecko_sdk_4.4.6/hardware/board/src/sl_board_control_gpio.o
 .ARM.attributes
                0x00000204       0x32 ./gecko_sdk_4.4.6/hardware/board/src/sl_board_init.o
 .ARM.attributes
                0x00000236       0x32 ./gecko_sdk_4.4.6/hardware/driver/configuration_over_swo/src/sl_cos.o
 .ARM.attributes
                0x00000268       0x32 ./gecko_sdk_4.4.6/hardware/driver/mx25_flash_shutdown/src/sl_mx25_flash_shutdown_usart/sl_mx25_flash_shutdown.o
 .ARM.attributes
                0x0000029a       0x32 ./gecko_sdk_4.4.6/platform/Device/SiliconLabs/EFR32MG12P/Source/startup_efr32mg12p.o
 .ARM.attributes
                0x000002cc       0x32 ./gecko_sdk_4.4.6/platform/Device/SiliconLabs/EFR32MG12P/Source/system_efr32mg12p.o
 .ARM.attributes
                0x000002fe       0x32 ./gecko_sdk_4.4.6/platform/common/src/sl_assert.o
 .ARM.attributes
                0x00000330       0x32 ./gecko_sdk_4.4.6/platform/common/src/sl_syscalls.o
 .ARM.attributes
                0x00000362       0x32 ./gecko_sdk_4.4.6/platform/common/toolchain/src/sl_memory.o
 .ARM.attributes
                0x00000394       0x32 ./gecko_sdk_4.4.6/platform/driver/debug/src/sl_debug_swo.o
 .ARM.attributes
                0x000003c6       0x32 ./gecko_sdk_4.4.6/platform/emlib/src/em_cmu.o
 .ARM.attributes
                0x000003f8       0x32 ./gecko_sdk_4.4.6/platform/emlib/src/em_core.o
 .ARM.attributes
                0x0000042a       0x32 ./gecko_sdk_4.4.6/platform/emlib/src/em_emu.o
 .ARM.attributes
                0x0000045c       0x32 ./gecko_sdk_4.4.6/platform/emlib/src/em_gpio.o
 .ARM.attributes
                0x0000048e       0x32 ./gecko_sdk_4.4.6/platform/emlib/src/em_rtcc.o
 .ARM.attributes
                0x000004c0       0x32 ./gecko_sdk_4.4.6/platform/emlib/src/em_system.o
 .ARM.attributes
                0x000004f2       0x32 ./gecko_sdk_4.4.6/platform/emlib/src/em_usart.o
 .ARM.attributes
                0x00000524       0x32 ./gecko_sdk_4.4.6/platform/service/device_init/src/sl_device_init_dcdc_s1.o
 .ARM.attributes
                0x00000556       0x32 ./gecko_sdk_4.4.6/platform/service/device_init/src/sl_device_init_emu_s1.o
 .ARM.attributes
                0x00000588       0x32 ./gecko_sdk_4.4.6/platform/service/device_init/src/sl_device_init_hfxo_s1.o
 .ARM.attributes
                0x000005ba       0x32 ./gecko_sdk_4.4.6/platform/service/device_init/src/sl_device_init_lfxo_s1.o
 .ARM.attributes
                0x000005ec       0x32 ./gecko_sdk_4.4.6/platform/service/device_init/src/sl_device_init_nvic.o
 .ARM.attributes
                0x0000061e       0x32 ./gecko_sdk_4.4.6/platform/service/sleeptimer/src/sl_sleeptimer.o
 .ARM.attributes
                0x00000650       0x32 ./gecko_sdk_4.4.6/platform/service/sleeptimer/src/sl_sleeptimer_hal_rtcc.o
 .ARM.attributes
                0x00000682       0x32 ./gecko_sdk_4.4.6/platform/service/system/src/sl_system_init.o
 .ARM.attributes
                0x000006b4       0x32 ./gecko_sdk_4.4.6/platform/service/system/src/sl_system_process_action.o
 .ARM.attributes
                0x000006e6       0x32 ./gecko_sdk_4.4.6/platform/service/udelay/src/sl_udelay.o
 .ARM.attributes
                0x00000718       0x20 ./gecko_sdk_4.4.6/platform/service/udelay/src/sl_udelay_armv6m_gcc.o
 .ARM.attributes
                0x00000738       0x22 d:/simplicitystudio-5/developer/toolchains/gnu_arm/12.2.rel1_2023.7/bin/../lib/gcc/arm-none-eabi/12.2.1/thumb/v7e-m+fp/softfp\libgcc.a(_arm_addsubdf3.o)
 .ARM.attributes
                0x0000075a       0x22 d:/simplicitystudio-5/developer/toolchains/gnu_arm/12.2.rel1_2023.7/bin/../lib/gcc/arm-none-eabi/12.2.1/thumb/v7e-m+fp/softfp\libgcc.a(_arm_truncdfsf2.o)
 .ARM.attributes
                0x0000077c       0x22 d:/simplicitystudio-5/developer/toolchains/gnu_arm/12.2.rel1_2023.7/bin/../lib/gcc/arm-none-eabi/12.2.1/thumb/v7e-m+fp/softfp\libgcc.a(_aeabi_uldivmod.o)
 .ARM.attributes
                0x0000079e       0x32 d:/simplicitystudio-5/developer/toolchains/gnu_arm/12.2.rel1_2023.7/bin/../lib/gcc/arm-none-eabi/12.2.1/thumb/v7e-m+fp/softfp\libgcc.a(_udivmoddi4.o)
 .ARM.attributes
                0x000007d0       0x32 d:/simplicitystudio-5/developer/toolchains/gnu_arm/12.2.rel1_2023.7/bin/../lib/gcc/arm-none-eabi/12.2.1/thumb/v7e-m+fp/softfp\libgcc.a(emutls.o)
 .ARM.attributes
                0x00000802       0x22 d:/simplicitystudio-5/developer/toolchains/gnu_arm/12.2.rel1_2023.7/bin/../lib/gcc/arm-none-eabi/12.2.1/thumb/v7e-m+fp/softfp\libgcc.a(_dvmd_tls.o)
 .ARM.attributes
                0x00000824       0x32 d:/simplicitystudio-5/developer/toolchains/gnu_arm/12.2.rel1_2023.7/bin/../lib/gcc/arm-none-eabi/12.2.1/thumb/v7e-m+fp/softfp\libc_nano.a(libc_a-abs.o)
 .ARM.attributes
                0x00000856       0x32 d:/simplicitystudio-5/developer/toolchains/gnu_arm/12.2.rel1_2023.7/bin/../lib/gcc/arm-none-eabi/12.2.1/thumb/v7e-m+fp/softfp\libc_nano.a(libc_a-assert.o)
 .ARM.attributes
                0x00000888       0x32 d:/simplicitystudio-5/developer/toolchains/gnu_arm/12.2.rel1_2023.7/bin/../lib/gcc/arm-none-eabi/12.2.1/thumb/v7e-m+fp/softfp\libc_nano.a(libc_a-exit.o)
 .ARM.attributes
                0x000008ba       0x32 d:/simplicitystudio-5/developer/toolchains/gnu_arm/12.2.rel1_2023.7/bin/../lib/gcc/arm-none-eabi/12.2.1/thumb/v7e-m+fp/softfp\libc_nano.a(libc_a-malloc.o)
 .ARM.attributes
                0x000008ec       0x32 d:/simplicitystudio-5/developer/toolchains/gnu_arm/12.2.rel1_2023.7/bin/../lib/gcc/arm-none-eabi/12.2.1/thumb/v7e-m+fp/softfp\libc_nano.a(libc_a-mallocr.o)
 .ARM.attributes
                0x0000091e       0x32 d:/simplicitystudio-5/developer/toolchains/gnu_arm/12.2.rel1_2023.7/bin/../lib/gcc/arm-none-eabi/12.2.1/thumb/v7e-m+fp/softfp\libc_nano.a(libc_a-mlock.o)
 .ARM.attributes
                0x00000950       0x32 d:/simplicitystudio-5/developer/toolchains/gnu_arm/12.2.rel1_2023.7/bin/../lib/gcc/arm-none-eabi/12.2.1/thumb/v7e-m+fp/softfp\libc_nano.a(libc_a-realloc.o)
 .ARM.attributes
                0x00000982       0x32 d:/simplicitystudio-5/developer/toolchains/gnu_arm/12.2.rel1_2023.7/bin/../lib/gcc/arm-none-eabi/12.2.1/thumb/v7e-m+fp/softfp\libc_nano.a(libc_a-reallocr.o)
 .ARM.attributes
                0x000009b4       0x32 d:/simplicitystudio-5/developer/toolchains/gnu_arm/12.2.rel1_2023.7/bin/../lib/gcc/arm-none-eabi/12.2.1/thumb/v7e-m+fp/softfp\libc_nano.a(libc_a-strtol.o)
 .ARM.attributes
                0x000009e6       0x32 d:/simplicitystudio-5/developer/toolchains/gnu_arm/12.2.rel1_2023.7/bin/../lib/gcc/arm-none-eabi/12.2.1/thumb/v7e-m+fp/softfp\libc_nano.a(libc_a-ctype_.o)
 .ARM.attributes
                0x00000a18       0x32 d:/simplicitystudio-5/developer/toolchains/gnu_arm/12.2.rel1_2023.7/bin/../lib/gcc/arm-none-eabi/12.2.1/thumb/v7e-m+fp/softfp\libc_nano.a(libc_a-findfp.o)
 .ARM.attributes
                0x00000a4a       0x32 d:/simplicitystudio-5/developer/toolchains/gnu_arm/12.2.rel1_2023.7/bin/../lib/gcc/arm-none-eabi/12.2.1/thumb/v7e-m+fp/softfp\libc_nano.a(libc_a-fprintf.o)
 .ARM.attributes
                0x00000a7c       0x32 d:/simplicitystudio-5/developer/toolchains/gnu_arm/12.2.rel1_2023.7/bin/../lib/gcc/arm-none-eabi/12.2.1/thumb/v7e-m+fp/softfp\libc_nano.a(libc_a-fwalk.o)
 .ARM.attributes
                0x00000aae       0x32 d:/simplicitystudio-5/developer/toolchains/gnu_arm/12.2.rel1_2023.7/bin/../lib/gcc/arm-none-eabi/12.2.1/thumb/v7e-m+fp/softfp\libc_nano.a(libc_a-stdio.o)
 .ARM.attributes
                0x00000ae0       0x32 d:/simplicitystudio-5/developer/toolchains/gnu_arm/12.2.rel1_2023.7/bin/../lib/gcc/arm-none-eabi/12.2.1/thumb/v7e-m+fp/softfp\libc_nano.a(libc_a-vsnprintf.o)
 .ARM.attributes
                0x00000b12       0x32 d:/simplicitystudio-5/developer/toolchains/gnu_arm/12.2.rel1_2023.7/bin/../lib/gcc/arm-none-eabi/12.2.1/thumb/v7e-m+fp/softfp\libc_nano.a(libc_a-memset.o)
 .ARM.attributes
                0x00000b44       0x32 d:/simplicitystudio-5/developer/toolchains/gnu_arm/12.2.rel1_2023.7/bin/../lib/gcc/arm-none-eabi/12.2.1/thumb/v7e-m+fp/softfp\libc_nano.a(libc_a-strncmp.o)
 .ARM.attributes
                0x00000b76       0x32 d:/simplicitystudio-5/developer/toolchains/gnu_arm/12.2.rel1_2023.7/bin/../lib/gcc/arm-none-eabi/12.2.1/thumb/v7e-m+fp/softfp\libc_nano.a(libc_a-closer.o)
 .ARM.attributes
                0x00000ba8       0x32 d:/simplicitystudio-5/developer/toolchains/gnu_arm/12.2.rel1_2023.7/bin/../lib/gcc/arm-none-eabi/12.2.1/thumb/v7e-m+fp/softfp\libc_nano.a(libc_a-reent.o)
 .ARM.attributes
                0x00000bda       0x32 d:/simplicitystudio-5/developer/toolchains/gnu_arm/12.2.rel1_2023.7/bin/../lib/gcc/arm-none-eabi/12.2.1/thumb/v7e-m+fp/softfp\libc_nano.a(libc_a-impure.o)
 .ARM.attributes
                0x00000c0c       0x32 d:/simplicitystudio-5/developer/toolchains/gnu_arm/12.2.rel1_2023.7/bin/../lib/gcc/arm-none-eabi/12.2.1/thumb/v7e-m+fp/softfp\libc_nano.a(libc_a-lseekr.o)
 .ARM.attributes
                0x00000c3e       0x32 d:/simplicitystudio-5/developer/toolchains/gnu_arm/12.2.rel1_2023.7/bin/../lib/gcc/arm-none-eabi/12.2.1/thumb/v7e-m+fp/softfp\libc_nano.a(libc_a-readr.o)
 .ARM.attributes
                0x00000c70       0x32 d:/simplicitystudio-5/developer/toolchains/gnu_arm/12.2.rel1_2023.7/bin/../lib/gcc/arm-none-eabi/12.2.1/thumb/v7e-m+fp/softfp\libc_nano.a(libc_a-sbrkr.o)
 .ARM.attributes
                0x00000ca2       0x32 d:/simplicitystudio-5/developer/toolchains/gnu_arm/12.2.rel1_2023.7/bin/../lib/gcc/arm-none-eabi/12.2.1/thumb/v7e-m+fp/softfp\libc_nano.a(libc_a-writer.o)
 .ARM.attributes
                0x00000cd4       0x32 d:/simplicitystudio-5/developer/toolchains/gnu_arm/12.2.rel1_2023.7/bin/../lib/gcc/arm-none-eabi/12.2.1/thumb/v7e-m+fp/softfp\libc_nano.a(libc_a-errno.o)
 .ARM.attributes
                0x00000d06       0x32 d:/simplicitystudio-5/developer/toolchains/gnu_arm/12.2.rel1_2023.7/bin/../lib/gcc/arm-none-eabi/12.2.1/thumb/v7e-m+fp/softfp\libc_nano.a(libc_a-init.o)
 .ARM.attributes
                0x00000d38       0x32 d:/simplicitystudio-5/developer/toolchains/gnu_arm/12.2.rel1_2023.7/bin/../lib/gcc/arm-none-eabi/12.2.1/thumb/v7e-m+fp/softfp\libc_nano.a(libc_a-lock.o)
 .ARM.attributes
                0x00000d6a       0x20 d:/simplicitystudio-5/developer/toolchains/gnu_arm/12.2.rel1_2023.7/bin/../lib/gcc/arm-none-eabi/12.2.1/thumb/v7e-m+fp/softfp\libc_nano.a(libc_a-strcmp.o)
 .ARM.attributes
                0x00000d8a       0x32 d:/simplicitystudio-5/developer/toolchains/gnu_arm/12.2.rel1_2023.7/bin/../lib/gcc/arm-none-eabi/12.2.1/thumb/v7e-m+fp/softfp\libc_nano.a(libc_a-memcpy-stub.o)
 .ARM.attributes
                0x00000dbc       0x32 d:/simplicitystudio-5/developer/toolchains/gnu_arm/12.2.rel1_2023.7/bin/../lib/gcc/arm-none-eabi/12.2.1/thumb/v7e-m+fp/softfp\libc_nano.a(libm_a-s_ldexp.o)
 .ARM.attributes
                0x00000dee       0x32 d:/simplicitystudio-5/developer/toolchains/gnu_arm/12.2.rel1_2023.7/bin/../lib/gcc/arm-none-eabi/12.2.1/thumb/v7e-m+fp/softfp\libc_nano.a(libm_a-s_scalbn.o)
 .ARM.attributes
                0x00000e20       0x32 d:/simplicitystudio-5/developer/toolchains/gnu_arm/12.2.rel1_2023.7/bin/../lib/gcc/arm-none-eabi/12.2.1/thumb/v7e-m+fp/softfp\libc_nano.a(libm_a-s_finite.o)
 .ARM.attributes
                0x00000e52       0x32 d:/simplicitystudio-5/developer/toolchains/gnu_arm/12.2.rel1_2023.7/bin/../lib/gcc/arm-none-eabi/12.2.1/thumb/v7e-m+fp/softfp\libc_nano.a(libc_a-abort.o)
 .ARM.attributes
                0x00000e84       0x32 d:/simplicitystudio-5/developer/toolchains/gnu_arm/12.2.rel1_2023.7/bin/../lib/gcc/arm-none-eabi/12.2.1/thumb/v7e-m+fp/softfp\libc_nano.a(libc_a-freer.o)
 .ARM.attributes
                0x00000eb6       0x32 d:/simplicitystudio-5/developer/toolchains/gnu_arm/12.2.rel1_2023.7/bin/../lib/gcc/arm-none-eabi/12.2.1/thumb/v7e-m+fp/softfp\libc_nano.a(libc_a-msizer.o)
 .ARM.attributes
                0x00000ee8       0x32 d:/simplicitystudio-5/developer/toolchains/gnu_arm/12.2.rel1_2023.7/bin/../lib/gcc/arm-none-eabi/12.2.1/thumb/v7e-m+fp/softfp\libc_nano.a(libc_a-nano-svfprintf.o)
 .ARM.attributes
                0x00000f1a       0x32 d:/simplicitystudio-5/developer/toolchains/gnu_arm/12.2.rel1_2023.7/bin/../lib/gcc/arm-none-eabi/12.2.1/thumb/v7e-m+fp/softfp\libc_nano.a(libc_a-nano-vfprintf.o)
 .ARM.attributes
                0x00000f4c       0x32 d:/simplicitystudio-5/developer/toolchains/gnu_arm/12.2.rel1_2023.7/bin/../lib/gcc/arm-none-eabi/12.2.1/thumb/v7e-m+fp/softfp\libc_nano.a(libc_a-nano-vfprintf_i.o)
 .ARM.attributes
                0x00000f7e       0x32 d:/simplicitystudio-5/developer/toolchains/gnu_arm/12.2.rel1_2023.7/bin/../lib/gcc/arm-none-eabi/12.2.1/thumb/v7e-m+fp/softfp\libc_nano.a(libc_a-fflush.o)
 .ARM.attributes
                0x00000fb0       0x32 d:/simplicitystudio-5/developer/toolchains/gnu_arm/12.2.rel1_2023.7/bin/../lib/gcc/arm-none-eabi/12.2.1/thumb/v7e-m+fp/softfp\libc_nano.a(libc_a-wbuf.o)
 .ARM.attributes
                0x00000fe2       0x32 d:/simplicitystudio-5/developer/toolchains/gnu_arm/12.2.rel1_2023.7/bin/../lib/gcc/arm-none-eabi/12.2.1/thumb/v7e-m+fp/softfp\libc_nano.a(libc_a-wsetup.o)
 .ARM.attributes
                0x00001014       0x32 d:/simplicitystudio-5/developer/toolchains/gnu_arm/12.2.rel1_2023.7/bin/../lib/gcc/arm-none-eabi/12.2.1/thumb/v7e-m+fp/softfp\libc_nano.a(libc_a-memmove.o)
 .ARM.attributes
                0x00001046       0x32 d:/simplicitystudio-5/developer/toolchains/gnu_arm/12.2.rel1_2023.7/bin/../lib/gcc/arm-none-eabi/12.2.1/thumb/v7e-m+fp/softfp\libc_nano.a(libc_a-signal.o)
 .ARM.attributes
                0x00001078       0x32 d:/simplicitystudio-5/developer/toolchains/gnu_arm/12.2.rel1_2023.7/bin/../lib/gcc/arm-none-eabi/12.2.1/thumb/v7e-m+fp/softfp\libc_nano.a(libc_a-signalr.o)
 .ARM.attributes
                0x000010aa       0x1c d:/simplicitystudio-5/developer/toolchains/gnu_arm/12.2.rel1_2023.7/bin/../lib/gcc/arm-none-eabi/12.2.1/thumb/v7e-m+fp/softfp\libc_nano.a(libc_a-memchr.o)
 .ARM.attributes
                0x000010c6       0x32 d:/simplicitystudio-5/developer/toolchains/gnu_arm/12.2.rel1_2023.7/bin/../lib/gcc/arm-none-eabi/12.2.1/thumb/v7e-m+fp/softfp\libc_nano.a(libc_a-makebuf.o)
 .ARM.attributes
                0x000010f8       0x32 d:/simplicitystudio-5/developer/toolchains/gnu_arm/12.2.rel1_2023.7/bin/../lib/gcc/arm-none-eabi/12.2.1/thumb/v7e-m+fp/softfp\libc_nano.a(libc_a-fstatr.o)
 .ARM.attributes
                0x0000112a       0x32 d:/simplicitystudio-5/developer/toolchains/gnu_arm/12.2.rel1_2023.7/bin/../lib/gcc/arm-none-eabi/12.2.1/thumb/v7e-m+fp/softfp\libc_nano.a(libc_a-isattyr.o)
 .ARM.attributes
                0x0000115c       0x32 d:/simplicitystudio-5/developer/toolchains/gnu_arm/12.2.rel1_2023.7/bin/../lib/gcc/arm-none-eabi/12.2.1/thumb/v7e-m+fp/softfp\libm.a(libm_a-w_pow.o)
 .ARM.attributes
                0x0000118e       0x32 d:/simplicitystudio-5/developer/toolchains/gnu_arm/12.2.rel1_2023.7/bin/../lib/gcc/arm-none-eabi/12.2.1/thumb/v7e-m+fp/softfp\libm.a(libm_a-e_pow.o)
 .ARM.attributes
                0x000011c0       0x32 d:/simplicitystudio-5/developer/toolchains/gnu_arm/12.2.rel1_2023.7/bin/../lib/gcc/arm-none-eabi/12.2.1/thumb/v7e-m+fp/softfp\libm.a(libm_a-s_fabs.o)
 .ARM.attributes
                0x000011f2       0x32 d:/simplicitystudio-5/developer/toolchains/gnu_arm/12.2.rel1_2023.7/bin/../lib/gcc/arm-none-eabi/12.2.1/thumb/v7e-m+fp/softfp\libm.a(libm_a-math_err.o)
 .ARM.attributes
                0x00001224       0x32 d:/simplicitystudio-5/developer/toolchains/gnu_arm/12.2.rel1_2023.7/bin/../lib/gcc/arm-none-eabi/12.2.1/thumb/v7e-m+fp/softfp\libm.a(libm_a-e_sqrt.o)
 .ARM.attributes
                0x00001256       0x22 d:/simplicitystudio-5/developer/toolchains/gnu_arm/12.2.rel1_2023.7/bin/../lib/gcc/arm-none-eabi/12.2.1/thumb/v7e-m+fp/softfp\libgcc.a(_arm_muldivdf3.o)
 .ARM.attributes
                0x00001278       0x22 d:/simplicitystudio-5/developer/toolchains/gnu_arm/12.2.rel1_2023.7/bin/../lib/gcc/arm-none-eabi/12.2.1/thumb/v7e-m+fp/softfp\libgcc.a(_arm_cmpdf2.o)
 .ARM.attributes
                0x0000129a       0x22 d:/simplicitystudio-5/developer/toolchains/gnu_arm/12.2.rel1_2023.7/bin/../lib/gcc/arm-none-eabi/12.2.1/thumb/v7e-m+fp/softfp\libgcc.a(_arm_unorddf2.o)
 .ARM.attributes
                0x000012bc       0x32 d:/simplicitystudio-5/developer/toolchains/gnu_arm/12.2.rel1_2023.7/bin/../lib/gcc/arm-none-eabi/12.2.1/thumb/v7e-m+fp/softfp/crtend.o
 .ARM.attributes
                0x000012ee       0x22 d:/simplicitystudio-5/developer/toolchains/gnu_arm/12.2.rel1_2023.7/bin/../lib/gcc/arm-none-eabi/12.2.1/thumb/v7e-m+fp/softfp/crtn.o

.comment        0x00000000       0x45
 .comment       0x00000000       0x45 ./app.o
                                 0x46 (size before relaxing)
 .comment       0x00000045       0x46 ./main.o
 .comment       0x00000045       0x46 ./nv_optical_flow.o
 .comment       0x00000045       0x46 ./nv_usart.o
 .comment       0x00000045       0x46 ./autogen/sl_board_default_init.o
 .comment       0x00000045       0x46 ./autogen/sl_device_init_clocks.o
 .comment       0x00000045       0x46 ./autogen/sl_event_handler.o
 .comment       0x00000045       0x46 ./gecko_sdk_4.4.6/hardware/board/src/sl_board_control_gpio.o
 .comment       0x00000045       0x46 ./gecko_sdk_4.4.6/hardware/board/src/sl_board_init.o
 .comment       0x00000045       0x46 ./gecko_sdk_4.4.6/hardware/driver/configuration_over_swo/src/sl_cos.o
 .comment       0x00000045       0x46 ./gecko_sdk_4.4.6/hardware/driver/mx25_flash_shutdown/src/sl_mx25_flash_shutdown_usart/sl_mx25_flash_shutdown.o
 .comment       0x00000045       0x46 ./gecko_sdk_4.4.6/platform/Device/SiliconLabs/EFR32MG12P/Source/startup_efr32mg12p.o
 .comment       0x00000045       0x46 ./gecko_sdk_4.4.6/platform/Device/SiliconLabs/EFR32MG12P/Source/system_efr32mg12p.o
 .comment       0x00000045       0x46 ./gecko_sdk_4.4.6/platform/common/src/sl_assert.o
 .comment       0x00000045       0x46 ./gecko_sdk_4.4.6/platform/common/src/sl_syscalls.o
 .comment       0x00000045       0x46 ./gecko_sdk_4.4.6/platform/common/toolchain/src/sl_memory.o
 .comment       0x00000045       0x46 ./gecko_sdk_4.4.6/platform/driver/debug/src/sl_debug_swo.o
 .comment       0x00000045       0x46 ./gecko_sdk_4.4.6/platform/emlib/src/em_cmu.o
 .comment       0x00000045       0x46 ./gecko_sdk_4.4.6/platform/emlib/src/em_core.o
 .comment       0x00000045       0x46 ./gecko_sdk_4.4.6/platform/emlib/src/em_emu.o
 .comment       0x00000045       0x46 ./gecko_sdk_4.4.6/platform/emlib/src/em_gpio.o
 .comment       0x00000045       0x46 ./gecko_sdk_4.4.6/platform/emlib/src/em_rtcc.o
 .comment       0x00000045       0x46 ./gecko_sdk_4.4.6/platform/emlib/src/em_system.o
 .comment       0x00000045       0x46 ./gecko_sdk_4.4.6/platform/emlib/src/em_usart.o
 .comment       0x00000045       0x46 ./gecko_sdk_4.4.6/platform/service/device_init/src/sl_device_init_dcdc_s1.o
 .comment       0x00000045       0x46 ./gecko_sdk_4.4.6/platform/service/device_init/src/sl_device_init_emu_s1.o
 .comment       0x00000045       0x46 ./gecko_sdk_4.4.6/platform/service/device_init/src/sl_device_init_hfxo_s1.o
 .comment       0x00000045       0x46 ./gecko_sdk_4.4.6/platform/service/device_init/src/sl_device_init_lfxo_s1.o
 .comment       0x00000045       0x46 ./gecko_sdk_4.4.6/platform/service/device_init/src/sl_device_init_nvic.o
 .comment       0x00000045       0x46 ./gecko_sdk_4.4.6/platform/service/sleeptimer/src/sl_sleeptimer.o
 .comment       0x00000045       0x46 ./gecko_sdk_4.4.6/platform/service/sleeptimer/src/sl_sleeptimer_hal_rtcc.o
 .comment       0x00000045       0x46 ./gecko_sdk_4.4.6/platform/service/system/src/sl_system_init.o
 .comment       0x00000045       0x46 ./gecko_sdk_4.4.6/platform/service/system/src/sl_system_process_action.o
 .comment       0x00000045       0x46 ./gecko_sdk_4.4.6/platform/service/udelay/src/sl_udelay.o

.debug_line_str
                0x00000000      0x2be
 .debug_line_str
                0x00000000       0xe5 d:/simplicitystudio-5/developer/toolchains/gnu_arm/12.2.rel1_2023.7/bin/../lib/gcc/arm-none-eabi/12.2.1/thumb/v7e-m+fp/softfp/crt0.o
 .debug_line_str
                0x000000e5       0xd0 d:/simplicitystudio-5/developer/toolchains/gnu_arm/12.2.rel1_2023.7/bin/../lib/gcc/arm-none-eabi/12.2.1/thumb/v7e-m+fp/softfp\libgcc.a(_arm_addsubdf3.o)
 .debug_line_str
                0x000001b5       0xd0 d:/simplicitystudio-5/developer/toolchains/gnu_arm/12.2.rel1_2023.7/bin/../lib/gcc/arm-none-eabi/12.2.1/thumb/v7e-m+fp/softfp\libgcc.a(_arm_truncdfsf2.o)
 .debug_line_str
                0x000001b5        0x8 d:/simplicitystudio-5/developer/toolchains/gnu_arm/12.2.rel1_2023.7/bin/../lib/gcc/arm-none-eabi/12.2.1/thumb/v7e-m+fp/softfp\libgcc.a(_aeabi_uldivmod.o)
                                 0xcb (size before relaxing)
 .debug_line_str
                0x000001bd        0xc d:/simplicitystudio-5/developer/toolchains/gnu_arm/12.2.rel1_2023.7/bin/../lib/gcc/arm-none-eabi/12.2.1/thumb/v7e-m+fp/softfp\libgcc.a(_dvmd_tls.o)
                                 0xcf (size before relaxing)
 .debug_line_str
                0x000001c9       0xec d:/simplicitystudio-5/developer/toolchains/gnu_arm/12.2.rel1_2023.7/bin/../lib/gcc/arm-none-eabi/12.2.1/thumb/v7e-m+fp/softfp\libc_nano.a(libc_a-strcmp.o)
 .debug_line_str
                0x000002b5        0x9 d:/simplicitystudio-5/developer/toolchains/gnu_arm/12.2.rel1_2023.7/bin/../lib/gcc/arm-none-eabi/12.2.1/thumb/v7e-m+fp/softfp\libc_nano.a(libc_a-memchr.o)
                                 0xe3 (size before relaxing)
 .debug_line_str
                0x000002be       0xd0 d:/simplicitystudio-5/developer/toolchains/gnu_arm/12.2.rel1_2023.7/bin/../lib/gcc/arm-none-eabi/12.2.1/thumb/v7e-m+fp/softfp\libgcc.a(_arm_muldivdf3.o)
 .debug_line_str
                0x000002be       0xd0 d:/simplicitystudio-5/developer/toolchains/gnu_arm/12.2.rel1_2023.7/bin/../lib/gcc/arm-none-eabi/12.2.1/thumb/v7e-m+fp/softfp\libgcc.a(_arm_cmpdf2.o)
 .debug_line_str
                0x000002be       0xd0 d:/simplicitystudio-5/developer/toolchains/gnu_arm/12.2.rel1_2023.7/bin/../lib/gcc/arm-none-eabi/12.2.1/thumb/v7e-m+fp/softfp\libgcc.a(_arm_unorddf2.o)

.debug_info     0x00000000    0x2adab
 .debug_info    0x00000000    0x126a3 ./app.o
 .debug_info    0x000126a3       0xa1 ./main.o
 .debug_info    0x00012744      0x949 ./nv_optical_flow.o
 .debug_info    0x0001308d     0x111e ./nv_usart.o
 .debug_info    0x000141ab       0xc5 ./autogen/sl_board_default_init.o
 .debug_info    0x00014270      0x888 ./autogen/sl_device_init_clocks.o
 .debug_info    0x00014af8      0x9b3 ./autogen/sl_event_handler.o
 .debug_info    0x000154ab      0x5d1 ./gecko_sdk_4.4.6/hardware/board/src/sl_board_control_gpio.o
 .debug_info    0x00015a7c      0x2f3 ./gecko_sdk_4.4.6/hardware/board/src/sl_board_init.o
 .debug_info    0x00015d6f      0x4d4 ./gecko_sdk_4.4.6/hardware/driver/configuration_over_swo/src/sl_cos.o
 .debug_info    0x00016243      0xe59 ./gecko_sdk_4.4.6/hardware/driver/mx25_flash_shutdown/src/sl_mx25_flash_shutdown_usart/sl_mx25_flash_shutdown.o
 .debug_info    0x0001709c      0x322 ./gecko_sdk_4.4.6/platform/Device/SiliconLabs/EFR32MG12P/Source/startup_efr32mg12p.o
 .debug_info    0x000173be      0x9c5 ./gecko_sdk_4.4.6/platform/Device/SiliconLabs/EFR32MG12P/Source/system_efr32mg12p.o
 .debug_info    0x00017d83       0x86 ./gecko_sdk_4.4.6/platform/common/src/sl_assert.o
 .debug_info    0x00017e09      0x306 ./gecko_sdk_4.4.6/platform/common/src/sl_syscalls.o
 .debug_info    0x0001810f      0x205 ./gecko_sdk_4.4.6/platform/common/toolchain/src/sl_memory.o
 .debug_info    0x00018314     0x1005 ./gecko_sdk_4.4.6/platform/driver/debug/src/sl_debug_swo.o
 .debug_info    0x00019319     0x47be ./gecko_sdk_4.4.6/platform/emlib/src/em_cmu.o
 .debug_info    0x0001dad7     0x11b4 ./gecko_sdk_4.4.6/platform/emlib/src/em_core.o
 .debug_info    0x0001ec8b     0x3b90 ./gecko_sdk_4.4.6/platform/emlib/src/em_emu.o
 .debug_info    0x0002281b      0xfb9 ./gecko_sdk_4.4.6/platform/emlib/src/em_gpio.o
 .debug_info    0x000237d4      0xc96 ./gecko_sdk_4.4.6/platform/emlib/src/em_rtcc.o
 .debug_info    0x0002446a      0xc37 ./gecko_sdk_4.4.6/platform/emlib/src/em_system.o
 .debug_info    0x000250a1     0x1578 ./gecko_sdk_4.4.6/platform/emlib/src/em_usart.o
 .debug_info    0x00026619      0x281 ./gecko_sdk_4.4.6/platform/service/device_init/src/sl_device_init_dcdc_s1.o
 .debug_info    0x0002689a      0x1ed ./gecko_sdk_4.4.6/platform/service/device_init/src/sl_device_init_emu_s1.o
 .debug_info    0x00026a87      0x8d7 ./gecko_sdk_4.4.6/platform/service/device_init/src/sl_device_init_hfxo_s1.o
 .debug_info    0x0002735e      0x1dd ./gecko_sdk_4.4.6/platform/service/device_init/src/sl_device_init_lfxo_s1.o
 .debug_info    0x0002753b      0x601 ./gecko_sdk_4.4.6/platform/service/device_init/src/sl_device_init_nvic.o
 .debug_info    0x00027b3c     0x1a68 ./gecko_sdk_4.4.6/platform/service/sleeptimer/src/sl_sleeptimer.o
 .debug_info    0x000295a4     0x1529 ./gecko_sdk_4.4.6/platform/service/sleeptimer/src/sl_sleeptimer_hal_rtcc.o
 .debug_info    0x0002aacd       0xa7 ./gecko_sdk_4.4.6/platform/service/system/src/sl_system_init.o
 .debug_info    0x0002ab74       0x93 ./gecko_sdk_4.4.6/platform/service/system/src/sl_system_process_action.o
 .debug_info    0x0002ac07      0x17e ./gecko_sdk_4.4.6/platform/service/udelay/src/sl_udelay.o
 .debug_info    0x0002ad85       0x26 ./gecko_sdk_4.4.6/platform/service/udelay/src/sl_udelay_armv6m_gcc.o

.debug_abbrev   0x00000000     0x4c49
 .debug_abbrev  0x00000000      0x758 ./app.o
 .debug_abbrev  0x00000758       0x5d ./main.o
 .debug_abbrev  0x000007b5      0x1e1 ./nv_optical_flow.o
 .debug_abbrev  0x00000996      0x346 ./nv_usart.o
 .debug_abbrev  0x00000cdc       0x87 ./autogen/sl_board_default_init.o
 .debug_abbrev  0x00000d63      0x145 ./autogen/sl_device_init_clocks.o
 .debug_abbrev  0x00000ea8      0x172 ./autogen/sl_event_handler.o
 .debug_abbrev  0x0000101a      0x187 ./gecko_sdk_4.4.6/hardware/board/src/sl_board_control_gpio.o
 .debug_abbrev  0x000011a1      0x11f ./gecko_sdk_4.4.6/hardware/board/src/sl_board_init.o
 .debug_abbrev  0x000012c0      0x20f ./gecko_sdk_4.4.6/hardware/driver/configuration_over_swo/src/sl_cos.o
 .debug_abbrev  0x000014cf      0x287 ./gecko_sdk_4.4.6/hardware/driver/mx25_flash_shutdown/src/sl_mx25_flash_shutdown_usart/sl_mx25_flash_shutdown.o
 .debug_abbrev  0x00001756      0x1c8 ./gecko_sdk_4.4.6/platform/Device/SiliconLabs/EFR32MG12P/Source/startup_efr32mg12p.o
 .debug_abbrev  0x0000191e      0x231 ./gecko_sdk_4.4.6/platform/Device/SiliconLabs/EFR32MG12P/Source/system_efr32mg12p.o
 .debug_abbrev  0x00001b4f       0x6c ./gecko_sdk_4.4.6/platform/common/src/sl_assert.o
 .debug_abbrev  0x00001bbb      0x143 ./gecko_sdk_4.4.6/platform/common/src/sl_syscalls.o
 .debug_abbrev  0x00001cfe      0x11e ./gecko_sdk_4.4.6/platform/common/toolchain/src/sl_memory.o
 .debug_abbrev  0x00001e1c      0x2fc ./gecko_sdk_4.4.6/platform/driver/debug/src/sl_debug_swo.o
 .debug_abbrev  0x00002118      0x59d ./gecko_sdk_4.4.6/platform/emlib/src/em_cmu.o
 .debug_abbrev  0x000026b5      0x33e ./gecko_sdk_4.4.6/platform/emlib/src/em_core.o
 .debug_abbrev  0x000029f3      0x60b ./gecko_sdk_4.4.6/platform/emlib/src/em_emu.o
 .debug_abbrev  0x00002ffe      0x32e ./gecko_sdk_4.4.6/platform/emlib/src/em_gpio.o
 .debug_abbrev  0x0000332c      0x275 ./gecko_sdk_4.4.6/platform/emlib/src/em_rtcc.o
 .debug_abbrev  0x000035a1      0x26a ./gecko_sdk_4.4.6/platform/emlib/src/em_system.o
 .debug_abbrev  0x0000380b      0x336 ./gecko_sdk_4.4.6/platform/emlib/src/em_usart.o
 .debug_abbrev  0x00003b41      0x10b ./gecko_sdk_4.4.6/platform/service/device_init/src/sl_device_init_dcdc_s1.o
 .debug_abbrev  0x00003c4c      0x109 ./gecko_sdk_4.4.6/platform/service/device_init/src/sl_device_init_emu_s1.o
 .debug_abbrev  0x00003d55      0x178 ./gecko_sdk_4.4.6/platform/service/device_init/src/sl_device_init_hfxo_s1.o
 .debug_abbrev  0x00003ecd      0x105 ./gecko_sdk_4.4.6/platform/service/device_init/src/sl_device_init_lfxo_s1.o
 .debug_abbrev  0x00003fd2      0x15a ./gecko_sdk_4.4.6/platform/service/device_init/src/sl_device_init_nvic.o
 .debug_abbrev  0x0000412c      0x495 ./gecko_sdk_4.4.6/platform/service/sleeptimer/src/sl_sleeptimer.o
 .debug_abbrev  0x000045c1      0x4c9 ./gecko_sdk_4.4.6/platform/service/sleeptimer/src/sl_sleeptimer_hal_rtcc.o
 .debug_abbrev  0x00004a8a       0x5c ./gecko_sdk_4.4.6/platform/service/system/src/sl_system_init.o
 .debug_abbrev  0x00004ae6       0x5c ./gecko_sdk_4.4.6/platform/service/system/src/sl_system_process_action.o
 .debug_abbrev  0x00004b42       0xf3 ./gecko_sdk_4.4.6/platform/service/udelay/src/sl_udelay.o
 .debug_abbrev  0x00004c35       0x14 ./gecko_sdk_4.4.6/platform/service/udelay/src/sl_udelay_armv6m_gcc.o

.debug_loc      0x00000000    0x219d4
 .debug_loc     0x00000000    0x15bf3 ./app.o
 .debug_loc     0x00015bf3       0x20 ./main.o
 .debug_loc     0x00015c13      0xdc8 ./nv_optical_flow.o
 .debug_loc     0x000169db      0x282 ./nv_usart.o
 .debug_loc     0x00016c5d       0x20 ./autogen/sl_device_init_clocks.o
 .debug_loc     0x00016c7d       0x99 ./autogen/sl_event_handler.o
 .debug_loc     0x00016d16      0x2ee ./gecko_sdk_4.4.6/hardware/board/src/sl_board_control_gpio.o
 .debug_loc     0x00017004       0x2c ./gecko_sdk_4.4.6/hardware/board/src/sl_board_init.o
 .debug_loc     0x00017030      0x31e ./gecko_sdk_4.4.6/hardware/driver/configuration_over_swo/src/sl_cos.o
 .debug_loc     0x0001734e      0x124 ./gecko_sdk_4.4.6/hardware/driver/mx25_flash_shutdown/src/sl_mx25_flash_shutdown_usart/sl_mx25_flash_shutdown.o
 .debug_loc     0x00017472       0x8e ./gecko_sdk_4.4.6/platform/Device/SiliconLabs/EFR32MG12P/Source/startup_efr32mg12p.o
 .debug_loc     0x00017500       0xd8 ./gecko_sdk_4.4.6/platform/Device/SiliconLabs/EFR32MG12P/Source/system_efr32mg12p.o
 .debug_loc     0x000175d8       0x2a ./gecko_sdk_4.4.6/platform/common/src/sl_assert.o
 .debug_loc     0x00017602      0x118 ./gecko_sdk_4.4.6/platform/common/src/sl_syscalls.o
 .debug_loc     0x0001771a       0x98 ./gecko_sdk_4.4.6/platform/common/toolchain/src/sl_memory.o
 .debug_loc     0x000177b2      0x293 ./gecko_sdk_4.4.6/platform/driver/debug/src/sl_debug_swo.o
 .debug_loc     0x00017a45     0x384d ./gecko_sdk_4.4.6/platform/emlib/src/em_cmu.o
 .debug_loc     0x0001b292      0x926 ./gecko_sdk_4.4.6/platform/emlib/src/em_core.o
 .debug_loc     0x0001bbb8     0x23b1 ./gecko_sdk_4.4.6/platform/emlib/src/em_emu.o
 .debug_loc     0x0001df69      0xa89 ./gecko_sdk_4.4.6/platform/emlib/src/em_gpio.o
 .debug_loc     0x0001e9f2      0x18d ./gecko_sdk_4.4.6/platform/emlib/src/em_rtcc.o
 .debug_loc     0x0001eb7f      0x19b ./gecko_sdk_4.4.6/platform/emlib/src/em_system.o
 .debug_loc     0x0001ed1a      0xab0 ./gecko_sdk_4.4.6/platform/emlib/src/em_usart.o
 .debug_loc     0x0001f7ca       0x2c ./gecko_sdk_4.4.6/platform/service/device_init/src/sl_device_init_dcdc_s1.o
 .debug_loc     0x0001f7f6       0x2c ./gecko_sdk_4.4.6/platform/service/device_init/src/sl_device_init_emu_s1.o
 .debug_loc     0x0001f822       0x77 ./gecko_sdk_4.4.6/platform/service/device_init/src/sl_device_init_hfxo_s1.o
 .debug_loc     0x0001f899       0x2c ./gecko_sdk_4.4.6/platform/service/device_init/src/sl_device_init_lfxo_s1.o
 .debug_loc     0x0001f8c5       0x79 ./gecko_sdk_4.4.6/platform/service/device_init/src/sl_device_init_nvic.o
 .debug_loc     0x0001f93e     0x1981 ./gecko_sdk_4.4.6/platform/service/sleeptimer/src/sl_sleeptimer.o
 .debug_loc     0x000212bf      0x518 ./gecko_sdk_4.4.6/platform/service/sleeptimer/src/sl_sleeptimer_hal_rtcc.o
 .debug_loc     0x000217d7       0x2c ./gecko_sdk_4.4.6/platform/service/system/src/sl_system_init.o
 .debug_loc     0x00021803       0x2c ./gecko_sdk_4.4.6/platform/service/system/src/sl_system_process_action.o
 .debug_loc     0x0002182f      0x1a5 ./gecko_sdk_4.4.6/platform/service/udelay/src/sl_udelay.o

.debug_aranges  0x00000000     0x10a8
 .debug_aranges
                0x00000000      0x3f0 ./app.o
 .debug_aranges
                0x000003f0       0x20 ./main.o
 .debug_aranges
                0x00000410       0x48 ./nv_optical_flow.o
 .debug_aranges
                0x00000458       0x50 ./nv_usart.o
 .debug_aranges
                0x000004a8       0x20 ./autogen/sl_board_default_init.o
 .debug_aranges
                0x000004c8       0x20 ./autogen/sl_device_init_clocks.o
 .debug_aranges
                0x000004e8       0x60 ./autogen/sl_event_handler.o
 .debug_aranges
                0x00000548       0x70 ./gecko_sdk_4.4.6/hardware/board/src/sl_board_control_gpio.o
 .debug_aranges
                0x000005b8       0x28 ./gecko_sdk_4.4.6/hardware/board/src/sl_board_init.o
 .debug_aranges
                0x000005e0       0x38 ./gecko_sdk_4.4.6/hardware/driver/configuration_over_swo/src/sl_cos.o
 .debug_aranges
                0x00000618       0x30 ./gecko_sdk_4.4.6/hardware/driver/mx25_flash_shutdown/src/sl_mx25_flash_shutdown_usart/sl_mx25_flash_shutdown.o
 .debug_aranges
                0x00000648       0x28 ./gecko_sdk_4.4.6/platform/Device/SiliconLabs/EFR32MG12P/Source/startup_efr32mg12p.o
 .debug_aranges
                0x00000670       0x68 ./gecko_sdk_4.4.6/platform/Device/SiliconLabs/EFR32MG12P/Source/system_efr32mg12p.o
 .debug_aranges
                0x000006d8       0x20 ./gecko_sdk_4.4.6/platform/common/src/sl_assert.o
 .debug_aranges
                0x000006f8       0x68 ./gecko_sdk_4.4.6/platform/common/src/sl_syscalls.o
 .debug_aranges
                0x00000760       0x30 ./gecko_sdk_4.4.6/platform/common/toolchain/src/sl_memory.o
 .debug_aranges
                0x00000790       0x48 ./gecko_sdk_4.4.6/platform/driver/debug/src/sl_debug_swo.o
 .debug_aranges
                0x000007d8      0x1b8 ./gecko_sdk_4.4.6/platform/emlib/src/em_cmu.o
 .debug_aranges
                0x00000990       0xe8 ./gecko_sdk_4.4.6/platform/emlib/src/em_core.o
 .debug_aranges
                0x00000a78      0x188 ./gecko_sdk_4.4.6/platform/emlib/src/em_emu.o
 .debug_aranges
                0x00000c00       0x70 ./gecko_sdk_4.4.6/platform/emlib/src/em_gpio.o
 .debug_aranges
                0x00000c70       0x40 ./gecko_sdk_4.4.6/platform/emlib/src/em_rtcc.o
 .debug_aranges
                0x00000cb0       0x78 ./gecko_sdk_4.4.6/platform/emlib/src/em_system.o
 .debug_aranges
                0x00000d28       0xb8 ./gecko_sdk_4.4.6/platform/emlib/src/em_usart.o
 .debug_aranges
                0x00000de0       0x20 ./gecko_sdk_4.4.6/platform/service/device_init/src/sl_device_init_dcdc_s1.o
 .debug_aranges
                0x00000e00       0x20 ./gecko_sdk_4.4.6/platform/service/device_init/src/sl_device_init_emu_s1.o
 .debug_aranges
                0x00000e20       0x20 ./gecko_sdk_4.4.6/platform/service/device_init/src/sl_device_init_hfxo_s1.o
 .debug_aranges
                0x00000e40       0x20 ./gecko_sdk_4.4.6/platform/service/device_init/src/sl_device_init_lfxo_s1.o
 .debug_aranges
                0x00000e60       0x20 ./gecko_sdk_4.4.6/platform/service/device_init/src/sl_device_init_nvic.o
 .debug_aranges
                0x00000e80      0x120 ./gecko_sdk_4.4.6/platform/service/sleeptimer/src/sl_sleeptimer.o
 .debug_aranges
                0x00000fa0       0x88 ./gecko_sdk_4.4.6/platform/service/sleeptimer/src/sl_sleeptimer_hal_rtcc.o
 .debug_aranges
                0x00001028       0x20 ./gecko_sdk_4.4.6/platform/service/system/src/sl_system_init.o
 .debug_aranges
                0x00001048       0x20 ./gecko_sdk_4.4.6/platform/service/system/src/sl_system_process_action.o
 .debug_aranges
                0x00001068       0x20 ./gecko_sdk_4.4.6/platform/service/udelay/src/sl_udelay.o
 .debug_aranges
                0x00001088       0x20 ./gecko_sdk_4.4.6/platform/service/udelay/src/sl_udelay_armv6m_gcc.o

.debug_ranges   0x00000000     0x3738
 .debug_ranges  0x00000000     0x21b8 ./app.o
 .debug_ranges  0x000021b8       0x10 ./main.o
 .debug_ranges  0x000021c8      0x228 ./nv_optical_flow.o
 .debug_ranges  0x000023f0       0x40 ./nv_usart.o
 .debug_ranges  0x00002430       0x10 ./autogen/sl_board_default_init.o
 .debug_ranges  0x00002440       0x10 ./autogen/sl_device_init_clocks.o
 .debug_ranges  0x00002450       0x50 ./autogen/sl_event_handler.o
 .debug_ranges  0x000024a0       0x60 ./gecko_sdk_4.4.6/hardware/board/src/sl_board_control_gpio.o
 .debug_ranges  0x00002500       0x18 ./gecko_sdk_4.4.6/hardware/board/src/sl_board_init.o
 .debug_ranges  0x00002518       0x40 ./gecko_sdk_4.4.6/hardware/driver/configuration_over_swo/src/sl_cos.o
 .debug_ranges  0x00002558       0x20 ./gecko_sdk_4.4.6/hardware/driver/mx25_flash_shutdown/src/sl_mx25_flash_shutdown_usart/sl_mx25_flash_shutdown.o
 .debug_ranges  0x00002578       0x80 ./gecko_sdk_4.4.6/platform/Device/SiliconLabs/EFR32MG12P/Source/startup_efr32mg12p.o
 .debug_ranges  0x000025f8       0x58 ./gecko_sdk_4.4.6/platform/Device/SiliconLabs/EFR32MG12P/Source/system_efr32mg12p.o
 .debug_ranges  0x00002650       0x10 ./gecko_sdk_4.4.6/platform/common/src/sl_assert.o
 .debug_ranges  0x00002660       0x58 ./gecko_sdk_4.4.6/platform/common/src/sl_syscalls.o
 .debug_ranges  0x000026b8       0x20 ./gecko_sdk_4.4.6/platform/common/toolchain/src/sl_memory.o
 .debug_ranges  0x000026d8       0x38 ./gecko_sdk_4.4.6/platform/driver/debug/src/sl_debug_swo.o
 .debug_ranges  0x00002710      0x498 ./gecko_sdk_4.4.6/platform/emlib/src/em_cmu.o
 .debug_ranges  0x00002ba8      0x198 ./gecko_sdk_4.4.6/platform/emlib/src/em_core.o
 .debug_ranges  0x00002d40      0x468 ./gecko_sdk_4.4.6/platform/emlib/src/em_emu.o
 .debug_ranges  0x000031a8       0xd0 ./gecko_sdk_4.4.6/platform/emlib/src/em_gpio.o
 .debug_ranges  0x00003278       0x48 ./gecko_sdk_4.4.6/platform/emlib/src/em_rtcc.o
 .debug_ranges  0x000032c0       0x68 ./gecko_sdk_4.4.6/platform/emlib/src/em_system.o
 .debug_ranges  0x00003328       0xa8 ./gecko_sdk_4.4.6/platform/emlib/src/em_usart.o
 .debug_ranges  0x000033d0       0x10 ./gecko_sdk_4.4.6/platform/service/device_init/src/sl_device_init_dcdc_s1.o
 .debug_ranges  0x000033e0       0x10 ./gecko_sdk_4.4.6/platform/service/device_init/src/sl_device_init_emu_s1.o
 .debug_ranges  0x000033f0       0x10 ./gecko_sdk_4.4.6/platform/service/device_init/src/sl_device_init_hfxo_s1.o
 .debug_ranges  0x00003400       0x10 ./gecko_sdk_4.4.6/platform/service/device_init/src/sl_device_init_lfxo_s1.o
 .debug_ranges  0x00003410       0x60 ./gecko_sdk_4.4.6/platform/service/device_init/src/sl_device_init_nvic.o
 .debug_ranges  0x00003470      0x1a0 ./gecko_sdk_4.4.6/platform/service/sleeptimer/src/sl_sleeptimer.o
 .debug_ranges  0x00003610       0xf8 ./gecko_sdk_4.4.6/platform/service/sleeptimer/src/sl_sleeptimer_hal_rtcc.o
 .debug_ranges  0x00003708       0x10 ./gecko_sdk_4.4.6/platform/service/system/src/sl_system_init.o
 .debug_ranges  0x00003718       0x10 ./gecko_sdk_4.4.6/platform/service/system/src/sl_system_process_action.o
 .debug_ranges  0x00003728       0x10 ./gecko_sdk_4.4.6/platform/service/udelay/src/sl_udelay.o

.debug_line     0x00000000    0x17255
 .debug_line    0x00000000     0xaf27 ./app.o
 .debug_line    0x0000af27       0xc0 ./main.o
 .debug_line    0x0000afe7      0x968 ./nv_optical_flow.o
 .debug_line    0x0000b94f      0x55c ./nv_usart.o
 .debug_line    0x0000beab      0x19e ./autogen/sl_board_default_init.o
 .debug_line    0x0000c049      0x214 ./autogen/sl_device_init_clocks.o
 .debug_line    0x0000c25d      0x4fc ./autogen/sl_event_handler.o
 .debug_line    0x0000c759      0x3cb ./gecko_sdk_4.4.6/hardware/board/src/sl_board_control_gpio.o
 .debug_line    0x0000cb24      0x1ff ./gecko_sdk_4.4.6/hardware/board/src/sl_board_init.o
 .debug_line    0x0000cd23      0x3fc ./gecko_sdk_4.4.6/hardware/driver/configuration_over_swo/src/sl_cos.o
 .debug_line    0x0000d11f      0x397 ./gecko_sdk_4.4.6/hardware/driver/mx25_flash_shutdown/src/sl_mx25_flash_shutdown_usart/sl_mx25_flash_shutdown.o
 .debug_line    0x0000d4b6      0x27c ./gecko_sdk_4.4.6/platform/Device/SiliconLabs/EFR32MG12P/Source/startup_efr32mg12p.o
 .debug_line    0x0000d732      0x3a3 ./gecko_sdk_4.4.6/platform/Device/SiliconLabs/EFR32MG12P/Source/system_efr32mg12p.o
 .debug_line    0x0000dad5       0x7f ./gecko_sdk_4.4.6/platform/common/src/sl_assert.o
 .debug_line    0x0000db54      0x17f ./gecko_sdk_4.4.6/platform/common/src/sl_syscalls.o
 .debug_line    0x0000dcd3      0x283 ./gecko_sdk_4.4.6/platform/common/toolchain/src/sl_memory.o
 .debug_line    0x0000df56      0x535 ./gecko_sdk_4.4.6/platform/driver/debug/src/sl_debug_swo.o
 .debug_line    0x0000e48b     0x26a3 ./gecko_sdk_4.4.6/platform/emlib/src/em_cmu.o
 .debug_line    0x00010b2e      0x99f ./gecko_sdk_4.4.6/platform/emlib/src/em_core.o
 .debug_line    0x000114cd     0x1c71 ./gecko_sdk_4.4.6/platform/emlib/src/em_emu.o
 .debug_line    0x0001313e      0x6b8 ./gecko_sdk_4.4.6/platform/emlib/src/em_gpio.o
 .debug_line    0x000137f6      0x4b7 ./gecko_sdk_4.4.6/platform/emlib/src/em_rtcc.o
 .debug_line    0x00013cad      0x420 ./gecko_sdk_4.4.6/platform/emlib/src/em_system.o
 .debug_line    0x000140cd      0xb4b ./gecko_sdk_4.4.6/platform/emlib/src/em_usart.o
 .debug_line    0x00014c18      0x1c5 ./gecko_sdk_4.4.6/platform/service/device_init/src/sl_device_init_dcdc_s1.o
 .debug_line    0x00014ddd      0x1e0 ./gecko_sdk_4.4.6/platform/service/device_init/src/sl_device_init_emu_s1.o
 .debug_line    0x00014fbd      0x271 ./gecko_sdk_4.4.6/platform/service/device_init/src/sl_device_init_hfxo_s1.o
 .debug_line    0x0001522e      0x1d6 ./gecko_sdk_4.4.6/platform/service/device_init/src/sl_device_init_lfxo_s1.o
 .debug_line    0x00015404      0x2a3 ./gecko_sdk_4.4.6/platform/service/device_init/src/sl_device_init_nvic.o
 .debug_line    0x000156a7      0xfd1 ./gecko_sdk_4.4.6/platform/service/sleeptimer/src/sl_sleeptimer.o
 .debug_line    0x00016678      0x7b6 ./gecko_sdk_4.4.6/platform/service/sleeptimer/src/sl_sleeptimer_hal_rtcc.o
 .debug_line    0x00016e2e       0xbb ./gecko_sdk_4.4.6/platform/service/system/src/sl_system_init.o
 .debug_line    0x00016ee9       0xc4 ./gecko_sdk_4.4.6/platform/service/system/src/sl_system_process_action.o
 .debug_line    0x00016fad      0x236 ./gecko_sdk_4.4.6/platform/service/udelay/src/sl_udelay.o
 .debug_line    0x000171e3       0x72 ./gecko_sdk_4.4.6/platform/service/udelay/src/sl_udelay_armv6m_gcc.o

.debug_str      0x00000000     0x8957
 .debug_str     0x00000000     0x22a4 ./app.o
                               0x24ec (size before relaxing)
 .debug_str     0x000022a4       0x32 ./main.o
                                0x167 (size before relaxing)
 .debug_str     0x000022d6       0xc5 ./nv_optical_flow.o
                                0x31f (size before relaxing)
 .debug_str     0x0000239b      0xd7d ./nv_usart.o
                               0x1008 (size before relaxing)
 .debug_str     0x00003118       0x5b ./autogen/sl_board_default_init.o
                                0x207 (size before relaxing)
 .debug_str     0x00003173      0x34d ./autogen/sl_device_init_clocks.o
                                0x888 (size before relaxing)
 .debug_str     0x000034c0      0x277 ./autogen/sl_event_handler.o
                                0x72a (size before relaxing)
 .debug_str     0x00003737      0x287 ./gecko_sdk_4.4.6/hardware/board/src/sl_board_control_gpio.o
                                0x6c7 (size before relaxing)
 .debug_str     0x000039be       0x47 ./gecko_sdk_4.4.6/hardware/board/src/sl_board_init.o
                                0x525 (size before relaxing)
 .debug_str     0x00003a05      0x1b1 ./gecko_sdk_4.4.6/hardware/driver/configuration_over_swo/src/sl_cos.o
                                0x3c5 (size before relaxing)
 .debug_str     0x00003bb6      0x237 ./gecko_sdk_4.4.6/hardware/driver/mx25_flash_shutdown/src/sl_mx25_flash_shutdown_usart/sl_mx25_flash_shutdown.o
                                0xbef (size before relaxing)
 .debug_str     0x00003ded      0x140 ./gecko_sdk_4.4.6/platform/Device/SiliconLabs/EFR32MG12P/Source/startup_efr32mg12p.o
                                0x2f8 (size before relaxing)
 .debug_str     0x00003f2d      0x18d ./gecko_sdk_4.4.6/platform/Device/SiliconLabs/EFR32MG12P/Source/system_efr32mg12p.o
                                0x66d (size before relaxing)
 .debug_str     0x000040ba       0x2d ./gecko_sdk_4.4.6/platform/common/src/sl_assert.o
                                0x15a (size before relaxing)
 .debug_str     0x000040e7       0x79 ./gecko_sdk_4.4.6/platform/common/src/sl_syscalls.o
                                0x23a (size before relaxing)
 .debug_str     0x00004160       0xcc ./gecko_sdk_4.4.6/platform/common/toolchain/src/sl_memory.o
                                0x294 (size before relaxing)
 .debug_str     0x0000422c      0x24c ./gecko_sdk_4.4.6/platform/driver/debug/src/sl_debug_swo.o
                                0xb8d (size before relaxing)
 .debug_str     0x00004478     0x1255 ./gecko_sdk_4.4.6/platform/emlib/src/em_cmu.o
                               0x1cd9 (size before relaxing)
 .debug_str     0x000056cd      0x356 ./gecko_sdk_4.4.6/platform/emlib/src/em_core.o
                                0x909 (size before relaxing)
 .debug_str     0x00005a23     0x102a ./gecko_sdk_4.4.6/platform/emlib/src/em_emu.o
                               0x20b6 (size before relaxing)
 .debug_str     0x00006a4d      0x128 ./gecko_sdk_4.4.6/platform/emlib/src/em_gpio.o
                                0x81c (size before relaxing)
 .debug_str     0x00006b75      0x520 ./gecko_sdk_4.4.6/platform/emlib/src/em_rtcc.o
                                0xa09 (size before relaxing)
 .debug_str     0x00007095      0x889 ./gecko_sdk_4.4.6/platform/emlib/src/em_system.o
                                0xe69 (size before relaxing)
 .debug_str     0x0000791e      0x3ca ./gecko_sdk_4.4.6/platform/emlib/src/em_usart.o
                                0xdcf (size before relaxing)
 .debug_str     0x00007ce8       0x47 ./gecko_sdk_4.4.6/platform/service/device_init/src/sl_device_init_dcdc_s1.o
                                0x448 (size before relaxing)
 .debug_str     0x00007d2f       0x4f ./gecko_sdk_4.4.6/platform/service/device_init/src/sl_device_init_emu_s1.o
                                0x369 (size before relaxing)
 .debug_str     0x00007d7e       0x47 ./gecko_sdk_4.4.6/platform/service/device_init/src/sl_device_init_hfxo_s1.o
                                0x79f (size before relaxing)
 .debug_str     0x00007dc5       0x47 ./gecko_sdk_4.4.6/platform/service/device_init/src/sl_device_init_lfxo_s1.o
                                0x300 (size before relaxing)
 .debug_str     0x00007e0c       0x60 ./gecko_sdk_4.4.6/platform/service/device_init/src/sl_device_init_nvic.o
                                0x5ff (size before relaxing)
 .debug_str     0x00007e6c      0x839 ./gecko_sdk_4.4.6/platform/service/sleeptimer/src/sl_sleeptimer.o
                                0xbb7 (size before relaxing)
 .debug_str     0x000086a5      0x182 ./gecko_sdk_4.4.6/platform/service/sleeptimer/src/sl_sleeptimer_hal_rtcc.o
                               0x1124 (size before relaxing)
 .debug_str     0x00008827       0x3a ./gecko_sdk_4.4.6/platform/service/system/src/sl_system_init.o
                                0x1b0 (size before relaxing)
 .debug_str     0x00008861       0x44 ./gecko_sdk_4.4.6/platform/service/system/src/sl_system_process_action.o
                                0x1dd (size before relaxing)
 .debug_str     0x000088a5       0x64 ./gecko_sdk_4.4.6/platform/service/udelay/src/sl_udelay.o
                                0x241 (size before relaxing)
 .debug_str     0x00008909       0x4e ./gecko_sdk_4.4.6/platform/service/udelay/src/sl_udelay_armv6m_gcc.o
                                 0x8a (size before relaxing)

.debug_frame    0x00000000     0x4010
 .debug_frame   0x00000000      0xf88 ./app.o
 .debug_frame   0x00000f88       0x28 ./main.o
 .debug_frame   0x00000fb0      0x114 ./nv_optical_flow.o
 .debug_frame   0x000010c4       0xb8 ./nv_usart.o
 .debug_frame   0x0000117c       0x20 ./autogen/sl_board_default_init.o
 .debug_frame   0x0000119c       0x2c ./autogen/sl_device_init_clocks.o
 .debug_frame   0x000011c8       0xc8 ./autogen/sl_event_handler.o
 .debug_frame   0x00001290      0x110 ./gecko_sdk_4.4.6/hardware/board/src/sl_board_control_gpio.o
 .debug_frame   0x000013a0       0x3c ./gecko_sdk_4.4.6/hardware/board/src/sl_board_init.o
 .debug_frame   0x000013dc       0x84 ./gecko_sdk_4.4.6/hardware/driver/configuration_over_swo/src/sl_cos.o
 .debug_frame   0x00001460       0x54 ./gecko_sdk_4.4.6/hardware/driver/mx25_flash_shutdown/src/sl_mx25_flash_shutdown_usart/sl_mx25_flash_shutdown.o
 .debug_frame   0x000014b4       0x38 ./gecko_sdk_4.4.6/platform/Device/SiliconLabs/EFR32MG12P/Source/startup_efr32mg12p.o
 .debug_frame   0x000014ec       0xb8 ./gecko_sdk_4.4.6/platform/Device/SiliconLabs/EFR32MG12P/Source/system_efr32mg12p.o
 .debug_frame   0x000015a4       0x20 ./gecko_sdk_4.4.6/platform/common/src/sl_assert.o
 .debug_frame   0x000015c4       0xb0 ./gecko_sdk_4.4.6/platform/common/src/sl_syscalls.o
 .debug_frame   0x00001674       0x40 ./gecko_sdk_4.4.6/platform/common/toolchain/src/sl_memory.o
 .debug_frame   0x000016b4       0x9c ./gecko_sdk_4.4.6/platform/driver/debug/src/sl_debug_swo.o
 .debug_frame   0x00001750      0x5a4 ./gecko_sdk_4.4.6/platform/emlib/src/em_cmu.o
 .debug_frame   0x00001cf4      0x240 ./gecko_sdk_4.4.6/platform/emlib/src/em_core.o
 .debug_frame   0x00001f34      0x454 ./gecko_sdk_4.4.6/platform/emlib/src/em_emu.o
 .debug_frame   0x00002388      0x190 ./gecko_sdk_4.4.6/platform/emlib/src/em_gpio.o
 .debug_frame   0x00002518       0x74 ./gecko_sdk_4.4.6/platform/emlib/src/em_rtcc.o
 .debug_frame   0x0000258c       0xe0 ./gecko_sdk_4.4.6/platform/emlib/src/em_system.o
 .debug_frame   0x0000266c      0x1ec ./gecko_sdk_4.4.6/platform/emlib/src/em_usart.o
 .debug_frame   0x00002858       0x30 ./gecko_sdk_4.4.6/platform/service/device_init/src/sl_device_init_dcdc_s1.o
 .debug_frame   0x00002888       0x2c ./gecko_sdk_4.4.6/platform/service/device_init/src/sl_device_init_emu_s1.o
 .debug_frame   0x000028b4       0x34 ./gecko_sdk_4.4.6/platform/service/device_init/src/sl_device_init_hfxo_s1.o
 .debug_frame   0x000028e8       0x28 ./gecko_sdk_4.4.6/platform/service/device_init/src/sl_device_init_lfxo_s1.o
 .debug_frame   0x00002910       0x28 ./gecko_sdk_4.4.6/platform/service/device_init/src/sl_device_init_nvic.o
 .debug_frame   0x00002938      0x3ac ./gecko_sdk_4.4.6/platform/service/sleeptimer/src/sl_sleeptimer.o
 .debug_frame   0x00002ce4      0x124 ./gecko_sdk_4.4.6/platform/service/sleeptimer/src/sl_sleeptimer_hal_rtcc.o
 .debug_frame   0x00002e08       0x2c ./gecko_sdk_4.4.6/platform/service/system/src/sl_system_init.o
 .debug_frame   0x00002e34       0x2c ./gecko_sdk_4.4.6/platform/service/system/src/sl_system_process_action.o
 .debug_frame   0x00002e60       0x38 ./gecko_sdk_4.4.6/platform/service/udelay/src/sl_udelay.o
 .debug_frame   0x00002e98       0xac d:/simplicitystudio-5/developer/toolchains/gnu_arm/12.2.rel1_2023.7/bin/../lib/gcc/arm-none-eabi/12.2.1/thumb/v7e-m+fp/softfp\libgcc.a(_arm_addsubdf3.o)
 .debug_frame   0x00002f44       0x24 d:/simplicitystudio-5/developer/toolchains/gnu_arm/12.2.rel1_2023.7/bin/../lib/gcc/arm-none-eabi/12.2.1/thumb/v7e-m+fp/softfp\libgcc.a(_arm_truncdfsf2.o)
 .debug_frame   0x00002f68       0x2c d:/simplicitystudio-5/developer/toolchains/gnu_arm/12.2.rel1_2023.7/bin/../lib/gcc/arm-none-eabi/12.2.1/thumb/v7e-m+fp/softfp\libgcc.a(_aeabi_uldivmod.o)
 .debug_frame   0x00002f94       0x34 d:/simplicitystudio-5/developer/toolchains/gnu_arm/12.2.rel1_2023.7/bin/../lib/gcc/arm-none-eabi/12.2.1/thumb/v7e-m+fp/softfp\libgcc.a(_udivmoddi4.o)
 .debug_frame   0x00002fc8       0x70 d:/simplicitystudio-5/developer/toolchains/gnu_arm/12.2.rel1_2023.7/bin/../lib/gcc/arm-none-eabi/12.2.1/thumb/v7e-m+fp/softfp\libgcc.a(emutls.o)
 .debug_frame   0x00003038       0x20 d:/simplicitystudio-5/developer/toolchains/gnu_arm/12.2.rel1_2023.7/bin/../lib/gcc/arm-none-eabi/12.2.1/thumb/v7e-m+fp/softfp\libc_nano.a(libc_a-abs.o)
 .debug_frame   0x00003058       0x40 d:/simplicitystudio-5/developer/toolchains/gnu_arm/12.2.rel1_2023.7/bin/../lib/gcc/arm-none-eabi/12.2.1/thumb/v7e-m+fp/softfp\libc_nano.a(libc_a-assert.o)
 .debug_frame   0x00003098       0x28 d:/simplicitystudio-5/developer/toolchains/gnu_arm/12.2.rel1_2023.7/bin/../lib/gcc/arm-none-eabi/12.2.1/thumb/v7e-m+fp/softfp\libc_nano.a(libc_a-exit.o)
 .debug_frame   0x000030c0       0x30 d:/simplicitystudio-5/developer/toolchains/gnu_arm/12.2.rel1_2023.7/bin/../lib/gcc/arm-none-eabi/12.2.1/thumb/v7e-m+fp/softfp\libc_nano.a(libc_a-malloc.o)
 .debug_frame   0x000030f0       0x4c d:/simplicitystudio-5/developer/toolchains/gnu_arm/12.2.rel1_2023.7/bin/../lib/gcc/arm-none-eabi/12.2.1/thumb/v7e-m+fp/softfp\libc_nano.a(libc_a-mallocr.o)
 .debug_frame   0x0000313c       0x30 d:/simplicitystudio-5/developer/toolchains/gnu_arm/12.2.rel1_2023.7/bin/../lib/gcc/arm-none-eabi/12.2.1/thumb/v7e-m+fp/softfp\libc_nano.a(libc_a-mlock.o)
 .debug_frame   0x0000316c       0x20 d:/simplicitystudio-5/developer/toolchains/gnu_arm/12.2.rel1_2023.7/bin/../lib/gcc/arm-none-eabi/12.2.1/thumb/v7e-m+fp/softfp\libc_nano.a(libc_a-realloc.o)
 .debug_frame   0x0000318c       0x3c d:/simplicitystudio-5/developer/toolchains/gnu_arm/12.2.rel1_2023.7/bin/../lib/gcc/arm-none-eabi/12.2.1/thumb/v7e-m+fp/softfp\libc_nano.a(libc_a-reallocr.o)
 .debug_frame   0x000031c8       0x64 d:/simplicitystudio-5/developer/toolchains/gnu_arm/12.2.rel1_2023.7/bin/../lib/gcc/arm-none-eabi/12.2.1/thumb/v7e-m+fp/softfp\libc_nano.a(libc_a-strtol.o)
 .debug_frame   0x0000322c      0x144 d:/simplicitystudio-5/developer/toolchains/gnu_arm/12.2.rel1_2023.7/bin/../lib/gcc/arm-none-eabi/12.2.1/thumb/v7e-m+fp/softfp\libc_nano.a(libc_a-findfp.o)
 .debug_frame   0x00003370       0x64 d:/simplicitystudio-5/developer/toolchains/gnu_arm/12.2.rel1_2023.7/bin/../lib/gcc/arm-none-eabi/12.2.1/thumb/v7e-m+fp/softfp\libc_nano.a(libc_a-fprintf.o)
 .debug_frame   0x000033d4       0x34 d:/simplicitystudio-5/developer/toolchains/gnu_arm/12.2.rel1_2023.7/bin/../lib/gcc/arm-none-eabi/12.2.1/thumb/v7e-m+fp/softfp\libc_nano.a(libc_a-fwalk.o)
 .debug_frame   0x00003408       0x88 d:/simplicitystudio-5/developer/toolchains/gnu_arm/12.2.rel1_2023.7/bin/../lib/gcc/arm-none-eabi/12.2.1/thumb/v7e-m+fp/softfp\libc_nano.a(libc_a-stdio.o)
 .debug_frame   0x00003490       0x4c d:/simplicitystudio-5/developer/toolchains/gnu_arm/12.2.rel1_2023.7/bin/../lib/gcc/arm-none-eabi/12.2.1/thumb/v7e-m+fp/softfp\libc_nano.a(libc_a-vsnprintf.o)
 .debug_frame   0x000034dc       0x20 d:/simplicitystudio-5/developer/toolchains/gnu_arm/12.2.rel1_2023.7/bin/../lib/gcc/arm-none-eabi/12.2.1/thumb/v7e-m+fp/softfp\libc_nano.a(libc_a-memset.o)
 .debug_frame   0x000034fc       0x28 d:/simplicitystudio-5/developer/toolchains/gnu_arm/12.2.rel1_2023.7/bin/../lib/gcc/arm-none-eabi/12.2.1/thumb/v7e-m+fp/softfp\libc_nano.a(libc_a-strncmp.o)
 .debug_frame   0x00003524       0x2c d:/simplicitystudio-5/developer/toolchains/gnu_arm/12.2.rel1_2023.7/bin/../lib/gcc/arm-none-eabi/12.2.1/thumb/v7e-m+fp/softfp\libc_nano.a(libc_a-closer.o)
 .debug_frame   0x00003550       0x38 d:/simplicitystudio-5/developer/toolchains/gnu_arm/12.2.rel1_2023.7/bin/../lib/gcc/arm-none-eabi/12.2.1/thumb/v7e-m+fp/softfp\libc_nano.a(libc_a-reent.o)
 .debug_frame   0x00003588       0x2c d:/simplicitystudio-5/developer/toolchains/gnu_arm/12.2.rel1_2023.7/bin/../lib/gcc/arm-none-eabi/12.2.1/thumb/v7e-m+fp/softfp\libc_nano.a(libc_a-lseekr.o)
 .debug_frame   0x000035b4       0x2c d:/simplicitystudio-5/developer/toolchains/gnu_arm/12.2.rel1_2023.7/bin/../lib/gcc/arm-none-eabi/12.2.1/thumb/v7e-m+fp/softfp\libc_nano.a(libc_a-readr.o)
 .debug_frame   0x000035e0       0x2c d:/simplicitystudio-5/developer/toolchains/gnu_arm/12.2.rel1_2023.7/bin/../lib/gcc/arm-none-eabi/12.2.1/thumb/v7e-m+fp/softfp\libc_nano.a(libc_a-sbrkr.o)
 .debug_frame   0x0000360c       0x2c d:/simplicitystudio-5/developer/toolchains/gnu_arm/12.2.rel1_2023.7/bin/../lib/gcc/arm-none-eabi/12.2.1/thumb/v7e-m+fp/softfp\libc_nano.a(libc_a-writer.o)
 .debug_frame   0x00003638       0x20 d:/simplicitystudio-5/developer/toolchains/gnu_arm/12.2.rel1_2023.7/bin/../lib/gcc/arm-none-eabi/12.2.1/thumb/v7e-m+fp/softfp\libc_nano.a(libc_a-errno.o)
 .debug_frame   0x00003658       0x2c d:/simplicitystudio-5/developer/toolchains/gnu_arm/12.2.rel1_2023.7/bin/../lib/gcc/arm-none-eabi/12.2.1/thumb/v7e-m+fp/softfp\libc_nano.a(libc_a-init.o)
 .debug_frame   0x00003684       0xb0 d:/simplicitystudio-5/developer/toolchains/gnu_arm/12.2.rel1_2023.7/bin/../lib/gcc/arm-none-eabi/12.2.1/thumb/v7e-m+fp/softfp\libc_nano.a(libc_a-lock.o)
 .debug_frame   0x00003734       0x20 d:/simplicitystudio-5/developer/toolchains/gnu_arm/12.2.rel1_2023.7/bin/../lib/gcc/arm-none-eabi/12.2.1/thumb/v7e-m+fp/softfp\libc_nano.a(libc_a-strcmp.o)
 .debug_frame   0x00003754       0x28 d:/simplicitystudio-5/developer/toolchains/gnu_arm/12.2.rel1_2023.7/bin/../lib/gcc/arm-none-eabi/12.2.1/thumb/v7e-m+fp/softfp\libc_nano.a(libc_a-memcpy-stub.o)
 .debug_frame   0x0000377c       0x2c d:/simplicitystudio-5/developer/toolchains/gnu_arm/12.2.rel1_2023.7/bin/../lib/gcc/arm-none-eabi/12.2.1/thumb/v7e-m+fp/softfp\libc_nano.a(libm_a-s_ldexp.o)
 .debug_frame   0x000037a8       0x30 d:/simplicitystudio-5/developer/toolchains/gnu_arm/12.2.rel1_2023.7/bin/../lib/gcc/arm-none-eabi/12.2.1/thumb/v7e-m+fp/softfp\libc_nano.a(libm_a-s_scalbn.o)
 .debug_frame   0x000037d8       0x20 d:/simplicitystudio-5/developer/toolchains/gnu_arm/12.2.rel1_2023.7/bin/../lib/gcc/arm-none-eabi/12.2.1/thumb/v7e-m+fp/softfp\libc_nano.a(libm_a-s_finite.o)
 .debug_frame   0x000037f8       0x28 d:/simplicitystudio-5/developer/toolchains/gnu_arm/12.2.rel1_2023.7/bin/../lib/gcc/arm-none-eabi/12.2.1/thumb/v7e-m+fp/softfp\libc_nano.a(libc_a-abort.o)
 .debug_frame   0x00003820       0x38 d:/simplicitystudio-5/developer/toolchains/gnu_arm/12.2.rel1_2023.7/bin/../lib/gcc/arm-none-eabi/12.2.1/thumb/v7e-m+fp/softfp\libc_nano.a(libc_a-freer.o)
 .debug_frame   0x00003858       0x20 d:/simplicitystudio-5/developer/toolchains/gnu_arm/12.2.rel1_2023.7/bin/../lib/gcc/arm-none-eabi/12.2.1/thumb/v7e-m+fp/softfp\libc_nano.a(libc_a-msizer.o)
 .debug_frame   0x00003878       0x90 d:/simplicitystudio-5/developer/toolchains/gnu_arm/12.2.rel1_2023.7/bin/../lib/gcc/arm-none-eabi/12.2.1/thumb/v7e-m+fp/softfp\libc_nano.a(libc_a-nano-svfprintf.o)
 .debug_frame   0x00003908       0xa8 d:/simplicitystudio-5/developer/toolchains/gnu_arm/12.2.rel1_2023.7/bin/../lib/gcc/arm-none-eabi/12.2.1/thumb/v7e-m+fp/softfp\libc_nano.a(libc_a-nano-vfprintf.o)
 .debug_frame   0x000039b0       0x60 d:/simplicitystudio-5/developer/toolchains/gnu_arm/12.2.rel1_2023.7/bin/../lib/gcc/arm-none-eabi/12.2.1/thumb/v7e-m+fp/softfp\libc_nano.a(libc_a-nano-vfprintf_i.o)
 .debug_frame   0x00003a10       0x5c d:/simplicitystudio-5/developer/toolchains/gnu_arm/12.2.rel1_2023.7/bin/../lib/gcc/arm-none-eabi/12.2.1/thumb/v7e-m+fp/softfp\libc_nano.a(libc_a-fflush.o)
 .debug_frame   0x00003a6c       0x40 d:/simplicitystudio-5/developer/toolchains/gnu_arm/12.2.rel1_2023.7/bin/../lib/gcc/arm-none-eabi/12.2.1/thumb/v7e-m+fp/softfp\libc_nano.a(libc_a-wbuf.o)
 .debug_frame   0x00003aac       0x2c d:/simplicitystudio-5/developer/toolchains/gnu_arm/12.2.rel1_2023.7/bin/../lib/gcc/arm-none-eabi/12.2.1/thumb/v7e-m+fp/softfp\libc_nano.a(libc_a-wsetup.o)
 .debug_frame   0x00003ad8       0x28 d:/simplicitystudio-5/developer/toolchains/gnu_arm/12.2.rel1_2023.7/bin/../lib/gcc/arm-none-eabi/12.2.1/thumb/v7e-m+fp/softfp\libc_nano.a(libc_a-memmove.o)
 .debug_frame   0x00003b00       0xcc d:/simplicitystudio-5/developer/toolchains/gnu_arm/12.2.rel1_2023.7/bin/../lib/gcc/arm-none-eabi/12.2.1/thumb/v7e-m+fp/softfp\libc_nano.a(libc_a-signal.o)
 .debug_frame   0x00003bcc       0x3c d:/simplicitystudio-5/developer/toolchains/gnu_arm/12.2.rel1_2023.7/bin/../lib/gcc/arm-none-eabi/12.2.1/thumb/v7e-m+fp/softfp\libc_nano.a(libc_a-signalr.o)
 .debug_frame   0x00003c08       0x58 d:/simplicitystudio-5/developer/toolchains/gnu_arm/12.2.rel1_2023.7/bin/../lib/gcc/arm-none-eabi/12.2.1/thumb/v7e-m+fp/softfp\libc_nano.a(libc_a-makebuf.o)
 .debug_frame   0x00003c60       0x2c d:/simplicitystudio-5/developer/toolchains/gnu_arm/12.2.rel1_2023.7/bin/../lib/gcc/arm-none-eabi/12.2.1/thumb/v7e-m+fp/softfp\libc_nano.a(libc_a-fstatr.o)
 .debug_frame   0x00003c8c       0x2c d:/simplicitystudio-5/developer/toolchains/gnu_arm/12.2.rel1_2023.7/bin/../lib/gcc/arm-none-eabi/12.2.1/thumb/v7e-m+fp/softfp\libc_nano.a(libc_a-isattyr.o)
 .debug_frame   0x00003cb8       0x34 d:/simplicitystudio-5/developer/toolchains/gnu_arm/12.2.rel1_2023.7/bin/../lib/gcc/arm-none-eabi/12.2.1/thumb/v7e-m+fp/softfp\libm.a(libm_a-w_pow.o)
 .debug_frame   0x00003cec       0x7c d:/simplicitystudio-5/developer/toolchains/gnu_arm/12.2.rel1_2023.7/bin/../lib/gcc/arm-none-eabi/12.2.1/thumb/v7e-m+fp/softfp\libm.a(libm_a-e_pow.o)
 .debug_frame   0x00003d68       0x20 d:/simplicitystudio-5/developer/toolchains/gnu_arm/12.2.rel1_2023.7/bin/../lib/gcc/arm-none-eabi/12.2.1/thumb/v7e-m+fp/softfp\libm.a(libm_a-s_fabs.o)
 .debug_frame   0x00003d88      0x11c d:/simplicitystudio-5/developer/toolchains/gnu_arm/12.2.rel1_2023.7/bin/../lib/gcc/arm-none-eabi/12.2.1/thumb/v7e-m+fp/softfp\libm.a(libm_a-math_err.o)
 .debug_frame   0x00003ea4       0x38 d:/simplicitystudio-5/developer/toolchains/gnu_arm/12.2.rel1_2023.7/bin/../lib/gcc/arm-none-eabi/12.2.1/thumb/v7e-m+fp/softfp\libm.a(libm_a-e_sqrt.o)
 .debug_frame   0x00003edc       0x50 d:/simplicitystudio-5/developer/toolchains/gnu_arm/12.2.rel1_2023.7/bin/../lib/gcc/arm-none-eabi/12.2.1/thumb/v7e-m+fp/softfp\libgcc.a(_arm_muldivdf3.o)
 .debug_frame   0x00003f2c       0xc4 d:/simplicitystudio-5/developer/toolchains/gnu_arm/12.2.rel1_2023.7/bin/../lib/gcc/arm-none-eabi/12.2.1/thumb/v7e-m+fp/softfp\libgcc.a(_arm_cmpdf2.o)
 .debug_frame   0x00003ff0       0x20 d:/simplicitystudio-5/developer/toolchains/gnu_arm/12.2.rel1_2023.7/bin/../lib/gcc/arm-none-eabi/12.2.1/thumb/v7e-m+fp/softfp\libgcc.a(_arm_unorddf2.o)
